(dp0
S'fawn'
p1
I3796
sS'ever,'
p2
I2657
sS'pardon'
p3
I1951
sS'better.'
p4
I3273
sS'yellow'
p5
I2280
sS'untold,'
p6
I3584
sS'hath'
p7
I431
sS'sleep'
p8
I1564
sS"friend's"
p9
I1238
sS'hanging'
p10
I961
sS'mansion'
p11
I2764
sS'appetite'
p12
I3044
sS'evermore'
p13
I1378
sS'hate'
p14
I467
sS'forget'
p15
I925
sS'whose'
p16
I141
sS'grace,'
p17
I2416
sS'feeding'
p18
I1883
sS'vile'
p19
I2253
sS'themes'
p20
I2955
sS'sweetest'
p21
I1336
sS'presents'
p22
I1077
sS'walks'
p23
I2652
sS'whatsoever'
p24
I1033
sS'under'
p25
I318
sS'lord'
p26
I1008
sS'sorry'
p27
I800
sS'pride'
p28
I988
sS'sway'
p29
I2142
sS'worth'
p30
I93
sS'wondrous'
p31
I2948
sS'boot,'
p32
I3561
sS'mournful'
p33
I2898
sS'neigh'
p34
I1773
sS'hadst'
p35
I1465
sS"women's"
p36
I830
sS'shoot'
p37
I3223
sS'every'
p38
I232
sS'foul'
p39
I3257
sS'nourished'
p40
I2302
sS'uncertain'
p41
I3760
sS'daily'
p42
I1901
sS'tears?'
p43
I3786
sS'special'
p44
I1800
sS'believed'
p45
I3651
sS'uttering'
p46
I2201
sS'prize'
p47
I2572
sS'graced'
p48
I2414
sS'present,'
p49
I3178
sS'flattery?'
p50
I3129
sS'stars,'
p51
I974
sS'succession'
p52
I131
sS'clearer,'
p53
I3156
sS'face:'
p54
I3516
sS'graces'
p55
I2413
sS'triumph'
p56
I979
sS'sounds,'
p57
I374
sS'enjoy'
p58
I1142
sS'charactered'
p59
I3321
sS'charter'
p60
I1947
sS'lips,'
p61
I3449
sS'created,'
p62
I849
sS'her.'
p63
I1532
sS'her,'
p64
I1524
sS'banks,'
p65
I1902
sS'me,'
p66
I881
sS'me.'
p67
I1624
sS'feathers'
p68
I2401
sS'tires'
p69
I1821
sS'second'
p70
I1961
sS'persuade'
p71
I886
sS'follow'
p72
I3703
sS'others,'
p73
I2733
sS'me?'
p74
I1445
sS'quill'
p75
I2516
sS'me:'
p76
I3711
sS'even'
p77
I658
sS'beated'
p78
I2039
sS'captain'
p79
I1794
sS'hide'
p80
I1273
sS'leave?'
p81
I225
sS'solemn'
p82
I1789
sS'fingers'
p83
I3428
sS'liberty'
p84
I1489
sS"gild'st"
p85
I1120
sS'change?'
p86
I2345
sS'report,'
p87
I2513
sS'report.'
p88
I2763
sS'worser'
p89
I3717
sS'leave,'
p90
I1460
sS'above'
p91
I2580
sS'rest,'
p92
I2690
sS'new'
p93
I1167
sS'poorly'
p94
I1815
sS'ever'
p95
I1702
sS'cured.'
p96
I3251
sS'sinks'
p97
I1610
sS'book,'
p98
I1967
sS'never'
p99
I11
sS'up,'
p100
I3144
sS'here'
p101
I568
sS'herd'
p102
I542
sS"sweet'st"
p103
I3524
sS'dimmed,'
p104
I769
sS'book.'
p105
I2488
sS'glass,'
p106
I266
sS'active'
p107
I1391
sS'monsters,'
p108
I3132
sS'effectually'
p109
I3107
sS'dry'
p110
I1304
sS'seek,'
p111
I2165
sS'resty'
p112
I2855
sS'substance'
p113
I1414
sS'untrue,'
p114
I2278
sS'attending'
p115
I338
sS'deaths,'
p116
I1844
sS'leaves'
p117
I254
sS'climbed'
p118
I326
sS'abide)'
p119
I1062
sS'credit'
p120
I3609
sS'less:'
p121
I2774
sS'permit'
p122
I1264
sS'bettered'
p123
I2334
sS'poverty'
p124
I2904
sS'settled'
p125
I1716
sS'light?'
p126
I1436
sS'hid?'
p127
I2118
sS'rebel'
p128
I3732
sS'bring:'
p129
I1446
sS'golden'
p130
I182
sS'deceived.'
p131
I2939
sS'divide'
p132
I1626
sS'iniquity.'
p133
I2046
sS'motley'
p134
I3030
sS'phrase'
p135
I2555
sS'brought'
p136
I1245
sS'patience'
p137
I1940
sS'war,'
p138
I1625
sS'tribes.'
p139
I2994
sS'stern'
p140
I2785
sS'befits,'
p141
I1493
sS"light's"
p142
I35
sS'fame.'
p143
I2441
sS'budding'
p144
I2752
sS'would'
p145
I501
sS'played'
p146
I945
sS"world's"
p147
I53
sS'junes'
p148
I2933
sS'music'
p149
I355
sS'therefore'
p150
I903
sS'right,'
p151
I1631
sS'survive'
p152
I1223
sS'gilding'
p153
I834
sS'tell'
p154
I135
sS'breathe'
p155
I1422
sS'trial'
p156
I3870
sS'leap,'
p157
I3435
sS'unbless'
p158
I148
sS'holy'
p159
I1205
sS'guest.'
p160
I3877
sS'brings'
p161
I2905
sS'guest,'
p162
I1669
sS'skill,'
p163
I956
sS'muse'
p164
I1239
sS"is't"
p165
I1447
sS'alack,'
p166
I1283
sS'glass'
p167
I134
sS'surmount.'
p168
I2037
sS'robbing'
p169
I2192
sS'hold'
p170
I577
sS'striving'
p171
I2915
sS'subsist,'
p172
I3327
sS'must'
p173
I554
sS'abundance'
p174
I44
sS'locked'
p175
I1696
sS'majesty.'
p176
I2405
sS'rights'
p177
I744
sS'work'
p178
I228
sS'eclipse'
p179
I2978
sS'roof'
p180
I458
sS'meadows'
p181
I1258
sS'ere'
p182
I279
sS'bark,'
p183
I3192
sS'society?'
p184
I2158
sS'leaped'
p185
I2822
sS'revenues'
p186
I3682
sS'my'
p187
I125
sS'example'
p188
I2531
sS'lodged'
p189
I469
sS'allayed,'
p190
I1884
sS'proudly'
p191
I3494
sS'fresher'
p192
I2494
sS'give'
p193
I1311
sS'dumb?'
p194
I2877
sS'key,'
p195
I1779
sS'shore,'
p196
I1899
sS'honey'
p197
I2103
sS'expressed.'
p198
I944
sS'defects,'
p199
I1704
sS'beck)'
p200
I1938
sS'respose'
p201
I1049
sS'bare,'
p202
I1024
sS'a-doting,'
p203
I853
sS'times'
p204
I295
sS'worse'
p205
I2544
sS'ceremony'
p206
I928
sS'things:'
p207
I3170
sS'end'
p208
I572
sS'gusts'
p209
I593
sS'keep,'
p210
I421
sS'dignifies'
p211
I2540
sS'travel'
p212
I1051
sS'indirectly'
p213
I2164
sS'far'
p214
I1061
sS'hot'
p215
I764
sS'writers'
p216
I2485
sS'youth,'
p217
I1393
sS'answer'
p218
I119
sS'deface,'
p219
I278
sS'win!'
p220
I3264
sS'confound.'
p221
I1995
sS"o'er-snowed"
p222
I256
sS'rise'
p223
I2854
sS'beauty'
p224
I99
sS'shorn'
p225
I2187
sS'grew:'
p226
I2830
sS'after'
p227
I582
sS'grew?'
p228
I2577
sS'scorned,'
p229
I741
sS'lay'
p230
I1537
sS'coloured'
p231
I3718
sS'lap'
p232
I2829
sS'grew.'
p233
I2533
sS'cold?'
p234
I597
sS'still:'
p235
I2924
sS'boat,'
p236
I2460
sS'perceived,'
p237
I2937
sS'clear,'
p238
I2545
sS'prevailed?'
p239
I1502
sS'greet'
p240
I1714
sS'purging'
p241
I1596
sS'still,'
p242
I337
sS'wink'
p243
I1539
sS'cold,'
p244
I2284
sS'haste'
p245
I1046
sS'abysm'
p246
I3093
sS'gladly,'
p247
I367
sS'keeps'
p248
I1796
sS'east,'
p249
I3511
sS'alack'
p250
I2903
sS'wouldst'
p251
I636
sS'amis'
p252
I1960
sS'bed-vow'
p253
I3835
sS'bait,'
p254
I3464
sS'couplement'
p255
I865
sS'affairs,'
p256
I3829
sS'consent'
p257
I1103
sS'effect,'
p258
I1375
sS'profaned'
p259
I3676
sS'sickly'
p260
I3761
sS'fortify'
p261
I687
sS'ghastly'
p262
I1083
sS'strangle'
p263
I2650
sS'crave,'
p264
I1932
sS'blot,'
p265
I2770
sS'wrought'
p266
I851
sS'before'
p267
I676
sS'heart:'
p268
I1668
sS'disease,'
p269
I3758
sS'(being'
p270
I1937
sS'then,'
p271
I3066
sS'glance'
p272
I2346
sS'better'
p273
I1248
sS'worms,'
p274
I2316
sS'carve'
p275
I812
sS'hidden'
p276
I1213
sS'shadow,'
p277
I2166
sS'then'
p278
I95
sS'them'
p279
I629
sS'blots'
p280
I1368
sS'weakness'
p281
I2623
sS'thee'
p282
I167
sS'within,'
p283
I3259
sS'slide.'
p284
I1604
sS'break'
p285
I1152
sS"winter's"
p286
I275
sS'diseased'
p287
I3241
sS'they'
p288
I379
sS'glazed'
p289
I962
sS'silver'
p290
I1326
sS'shadows'
p291
I1547
sS'bail,'
p292
I3536
sS'rhetoric'
p293
I2500
sS'brightness'
p294
I3807
sS'slavery'
p295
I3523
sS'rocks'
p296
I2109
sS'herald'
p297
I58
sS'victories'
p298
I999
sS'each'
p299
I317
sS'same.'
p300
I1977
sS'feeds'
p301
I2001
sS'hems.'
p302
I878
sS'side'
p303
I1643
sS'lofty'
p304
I535
sS'true-telling'
p305
I2504
sS'directly'
p306
I3729
sS'self-killed:'
p307
I283
sS'concord'
p308
I372
sS'habitation'
p309
I2767
sS'rehearse,'
p310
I864
sS'short,'
p311
I2517
sS'taught'
p312
I2089
sS'forgot'
p313
I1006
sS'misprision'
p314
I2613
sS'never!'
p315
I3267
sS'rehearse;'
p316
I2268
sS'truant'
p317
I2863
sS'scope,'
p318
I1141
sS'borne'
p319
I546
sS'tripping'
p320
I3884
sS'day?'
p321
I753
sS'self,'
p322
I565
sS'correction.'
p323
I3077
sS'god'
p324
I1927
sS'forty'
p325
I71
sS'day,'
p326
I347
sS'heart-inflaming'
p327
I3880
sS'is,'
p328
I1954
sS'heavenly'
p329
I328
sS'got'
p330
I2394
sS'indigest,'
p331
I3133
sS'marigold'
p332
I986
sS'forth'
p333
I1293
sS'twice'
p334
I3831
sS'siren'
p335
I3253
sS'prizing'
p336
I3704
sS'aid,'
p337
I2415
sS'dulness:'
p338
I1896
sS'hang'
p339
I1836
sS'defence.'
p340
I2644
sS'expired.'
p341
I1058
sS'eternal'
p342
I596
sS'given'
p343
I206
sS'mourning'
p344
I3514
sS'bestow'
p345
I1032
sS'whereupon'
p346
I836
sS'evil'
p347
I605
sS'crime.'
p348
I1953
sS"grow'st,"
p349
I479
sS'woe,'
p350
I1178
sS'mistress'
p351
I824
sS'woe.'
p352
I2264
sS"receiv'st"
p353
I366
sS'created'
p354
I2479
sS'bent,'
p355
I3702
sS'oppressed.'
p356
I1098
sS'days'
p357
I894
sS'renew'
p358
I1877
sS'fever!'
p359
I3272
sS'unknown'
p360
I3211
sS'kingdom'
p361
I2078
sS'potions'
p362
I3070
sS'ruinate'
p363
I459
sS'user'
p364
I435
sS'separable'
p365
I1371
sS'dove,'
p366
I3123
sS'already'
p367
I2362
sS'crowning'
p368
I3177
sS'waste:'
p369
I1168
sS'love)'
p370
I2273
sS'too,'
p371
I2631
sS'rank'
p372
I2219
sS'hearing'
p373
I2568
sS'waste,'
p374
I2366
sS'jealous'
p375
I1922
sS'featured'
p376
I1135
sS'grief,'
p377
I1313
sS'another'
p378
I292
sS'hear'
p379
I2248
sS'me!'
p380
I3773
sS'filching'
p381
I2332
sS'power,'
p382
I2098
sS'exchequer'
p383
I2173
sS'usurer'
p384
I209
sS'gay:'
p385
I2189
sS'made,'
p386
I1560
sS'top'
p387
I692
sS'tired'
p388
I1734
sS'bind.'
p389
I3550
sS'fault,'
p390
I2639
sS'millioned'
p391
I3158
sS'master'
p392
I823
sS'too'
p393
I49
sS'razed'
p394
I1003
sS'dwell'
p395
I234
sS'bitter'
p396
I3073
sS'thing:'
p397
I2819
sS'saith'
p398
I3130
sS'broils'
p399
I1859
sS'griefs'
p400
I2676
sS'ink'
p401
I2996
sS'took'
p402
I1677
sS'wastes'
p403
I553
sS'long,'
p404
I2837
sS'was.'
p405
I273
sS'wardrobe'
p406
I1798
sS'durst'
p407
I2182
sS'might,'
p408
I2440
sS'suited,'
p409
I3420
sS"youth's"
p410
I80
sS'travelled'
p411
I2052
sS'character'
p412
I1969
sS'begins'
p413
I1053
sS'distance'
p414
I1569
sS'coward'
p415
I2317
sS"mother's"
p416
I166
sS'air,'
p417
I1595
sS'bitterness'
p418
I1917
sS'air.'
p419
I2228
sS'matter'
p420
I1574
sS'messengers'
p421
I1619
sS'invention'
p422
I1435
sS'flame'
p423
I36
sS'friend'
p424
I1530
sS'air:'
p425
I885
sS'feeling'
p426
I3660
sS'water,'
p427
I3569
sS'swift-footed'
p428
I805
sS'well?'
p429
I2918
sS'fashion'
p430
I3372
sS'sees'
p431
I3789
sS'hue'
p432
I839
sS"mind's"
p433
I2368
sS'modern'
p434
I2515
sS'mind'
p435
I1968
sS'mine'
p436
I123
sS'manner'
p437
I3637
sS'might.'
p438
I1888
sS'bewailed'
p439
I1381
sS"deserv'st"
p440
I1454
sS'churl'
p441
I65
sS'seem'
p442
I931
sS'grind'
p443
I3045
sS'seek'
p444
I1723
sS'tells'
p445
I520
sS'contents'
p446
I1852
sS'(making'
p447
I2755
sS'forced'
p448
I1510
sS'strength'
p449
I930
sS'dearths,'
p450
I608
sS'do,'
p451
I2634
sS'neck'
p452
I3503
sS'snow'
p453
I3478
sS'ay,'
p454
I3579
sS"were't"
p455
I3382
sS'chest'
p456
I1797
sS'subjects'
p457
I2844
sS'me;'
p458
I3522
sS'morrow,'
p459
I2670
sS'pilgrimage'
p460
I1065
sS'rider'
p461
I1742
sS'tell.'
p462
I2656
sS'content,'
p463
I64
sS'tell,'
p464
I2539
sS'maiden'
p465
I695
sS'shall'
p466
I73
sS'see?'
p467
I3587
sS'much,'
p468
I2021
sS'object'
p469
I835
sS'see:'
p470
I1903
sS'dulling'
p471
I2911
sS'change,'
p472
I2648
sS'tell:'
p473
I2828
sS'tell;'
p474
I615
sS'see!'
p475
I2771
sS'ashes'
p476
I2298
sS'brood,'
p477
I788
sS'rest?'
p478
I1094
sS'see,'
p479
I178
sS'grave'
p480
I1215
sS'shalt'
p481
I177
sS'constancy'
p482
I2950
sS'ride,'
p483
I1266
sS"ne'er"
p484
I734
sS'force,'
p485
I1878
sS'consumed'
p486
I2301
sS'damasked,'
p487
I3486
sS'subject,'
p488
I2486
sS'sober'
p489
I3513
sS'steeled'
p490
I3088
sS'translated,'
p491
I2782
sS'points'
p492
I1037
sS'laid'
p493
I3387
sS'pretty'
p494
I1487
sS'strong,'
p495
I1948
sS'fitted'
p496
I3269
sS'reserve'
p497
I1233
sS'wild'
p498
I2900
sS'disperse.'
p499
I2396
sS'oaths'
p500
I3844
sS'random'
p501
I3772
sS'ending'
p502
I1875
sS'dream.'
p503
I3475
sS'took.'
p504
I2342
sS'cruel,'
p505
I3457
sS'earth'
p506
I786
sS'bail'
p507
I2305
sS'enjoyed'
p508
I3458
sS'ear,'
p509
I378
sS'touches'
p510
I733
sS'copy'
p511
I2542
sS'proposed'
p512
I3473
sS'spite'
p513
I1398
sS'such'
p514
I631
sS'green;'
p515
I1259
sS'haste:'
p516
I3357
sS'thrust,'
p517
I1680
sS'bliss'
p518
I3471
sS'touched'
p519
I735
sS'field,'
p520
I79
sS'pursuing'
p521
I2339
sS'mend'
p522
I2410
sS'green,'
p523
I2191
sS'monuments'
p524
I1849
sS'green.'
p525
I2935
sS'unprovident.'
p526
I443
sS'resort:'
p527
I2775
sS'rest.'
p528
I2296
sS'borrowed'
p529
I3414
sS'do'
p530
I304
sS'blenches'
p531
I3040
sS'sense'
p532
I3089
sS'compounded'
p533
I2266
sS'loved'
p534
I1514
sS'endure,'
p535
I3864
sS'stop'
p536
I164
sS'perceive'
p537
I654
sS'leisure'
p538
I1459
sS'raiment'
p539
I898
sS'gored'
p540
I3031
sS'bootless'
p541
I1129
sS'lies.'
p542
I1642
sS'lies,'
p543
I45
sS'despite'
p544
I179
sS'chase,'
p545
I3698
sS'saturn'
p546
I2820
sS'seemly'
p547
I897
sS'about,'
p548
I3102
sS'verses'
p549
I2920
sS'debt:'
p550
I2511
sS'increasing'
p551
I2084
sS"owner's"
p552
I2887
sS'deemed,'
p553
I3303
sS'thrusts'
p554
I1748
sS'doting'
p555
I3496
sS"children's"
p556
I422
sS'men.'
p557
I714
sS'sky:'
p558
I660
sS'them,'
p559
I1675
sS'steal'
p560
I1376
sS'farther'
p561
I1107
sS'fragrant'
p562
I2749
sS'penance'
p563
I3075
sS'new.'
p564
I1089
sS'unrespected'
p565
I1842
sS'fair'
p566
I121
sS'habit'
p567
I3615
sS'imitate'
p568
I2160
sS'give!'
p569
I1828
sS'new:'
p570
I1822
sS'depends'
p571
I2704
sS'corrupt'
p572
I3588
sS'wear,'
p573
I2364
sS'unset,'
p574
I697
sS'best'
p575
I511
sS'subject'
p576
I1419
sS'wits,'
p577
I3666
sS'said'
p578
I1513
sS'temptation'
p579
I1494
sS'face,'
p580
I1270
sS"bett'ring"
p581
I1231
sS'away'
p582
I2058
sS'sail'
p583
I2446
sS'bier'
p584
I547
sS'madding'
p585
I3271
sS'hold,'
p586
I3331
sS'beseem'
p587
I3517
sS'authority,'
p588
I2145
sS'groan;'
p589
I3498
sS'overthrow.'
p590
I2673
sS'pebbled'
p591
I1980
sS'drawn'
p592
I967
sS'vices'
p593
I2765
sS'foe,'
p594
I47
sS'preserve'
p595
I3759
sS'warrior'
p596
I995
sS'we'
p597
I3
sS'men'
p598
I655
sS'terms'
p599
I3750
sS'parallels'
p600
I2000
sS'discontent,'
p601
I3370
sS'nature'
p602
I220
sS'vanishing,'
p603
I2057
sS'weak'
p604
I1318
sS'ignorance'
p605
I2397
sS'authorizing'
p606
I1340
sS'discontent;'
p607
I3706
sS'devour'
p608
I787
sS'faults,'
p609
I1338
sS'news'
p610
I3642
sS'pity'
p611
I3065
sS"war's"
p612
I1864
sS'goddess'
p613
I3054
sS'impediments,'
p614
I3181
sS'fault'
p615
I1350
sS'ill'
p616
I2762
sS'against'
p617
I570
sS'estimate,'
p618
I2598
sS'brag'
p619
I779
sS'hindmost)'
p620
I2571
sS'receives'
p621
I3059
sS'expense'
p622
I1181
sS'groans'
p623
I3502
sS'partake?'
p624
I3791
sS'dignified:'
p625
I2868
sS'queen,'
p626
I2778
sS'choirs,'
p627
I2286
sS'burthen'
p628
I933
sS'poverty:'
p629
I1480
sS'height'
p630
I665
sS'hits,'
p631
I3293
sS"mistress'"
p632
I3417
sS'springs'
p633
I2929
sS'trust'
p634
I3335
sS'heals'
p635
I1308
sS'speak'
p636
I1823
sS'now,'
p637
I86
sS'now.'
p638
I1290
sS'knife,'
p639
I2062
sS'unhappily'
p640
I2132
sS'puts'
p641
I1040
sS'eager'
p642
I3226
sS'time-bettering'
p643
I2496
sS'three'
p644
I2925
sS'been'
p645
I1955
sS'particulars'
p646
I2691
sS'were,'
p647
I3639
sS'much'
p648
I112
sS'interest'
p649
I1210
sS'lovely'
p650
I170
sS'thrice'
p651
I3531
sS'idol'
p652
I2941
sS'held:'
p653
I94
sS'less,'
p654
I2884
sS'life'
p655
I705
sS"brav'ry"
p656
I1299
sS'easy'
p657
I3015
sS'spring,'
p658
I60
sS'turned'
p659
I3726
sS'sound:'
p660
I3490
sS'spring:'
p661
I2059
sS'sealed'
p662
I3679
sS'decrepit'
p663
I1387
sS'chase'
p664
I3708
sS'held,'
p665
I952
sS'child'
p666
I122
sS'catch'
p667
I3700
sS'doth'
p668
I194
sS'erst'
p669
I539
sS'gracious'
p670
I311
sS'physician'
p671
I3763
sS'disgraced,'
p672
I2140
sS'spent,'
p673
I2848
sS'depend.'
p674
I2709
sS'air'
p675
I876
sS'ugly'
p676
I1267
sS'brass,'
p677
I2092
sS'expire,'
p678
I2300
sS'voice'
p679
I2198
sS'wrought,'
p680
I1590
sS'vows'
p681
I3843
sS'weakens'
p682
I922
sS'thought,'
p683
I464
sS'abide,'
p684
I1599
sS"either's"
p685
I1101
sS'character,'
p686
I2997
sS'is'
p687
I138
sS'it'
p688
I270
sS'shame'
p689
I438
sS'to-morrow'
p690
I1885
sS'splendour'
p691
I1282
sS'watching'
p692
I3785
sS'in'
p693
I68
sS'after-loss:'
p694
I2663
sS'bounteous'
p695
I204
sS'meet,'
p696
I2746
sS'if'
p697
I117
sS'smoke?'
p698
I1301
sS'wooing'
p699
I3724
sS'memorial'
p700
I2309
sS'heart.'
p701
I2032
sS'defence'
p702
I3625
sS'heart,'
p703
I899
sS'(fore'
p704
I349
sS'patent'
p705
I2607
sS'things'
p706
I873
sS'make'
p707
I127
sS'wound'
p708
I3521
sS"lords'"
p709
I2806
sS'beside'
p710
I918
sS'heart;'
p711
I923
sS'night:'
p712
I3121
sS'nurseth'
p713
I3757
sS'receipt'
p714
I3581
sS"th'"
p715
I1180
sS'several'
p716
I3597
sS'grows'
p717
I640
sS'entitled'
p718
I1406
sS'lusty'
p719
I101
sS'fairly'
p720
I241
sS'thereof'
p721
I2438
sS'made:'
p722
I1846
sS'tops'
p723
I1255
sS'rain'
p724
I618
sS'hand'
p725
I277
sS'delight'
p726
I2340
sS'i,'
p727
I1394
sS'supposing'
p728
I2713
sS'dark'
p729
I1545
sS'made)'
p730
I1772
sS'forsake,'
p731
I559
sS'bequest'
p732
I191
sS'blamed'
p733
I2222
sS'thoughts'
p734
I1059
sS'grow.'
p735
I2519
sS'thee?'
p736
I1448
sS'grow,'
p737
I562
sS'kept'
p738
I433
sS'thy'
p739
I34
sS'singleness'
p740
I382
sS'askance'
p741
I3037
sS'possessed'
p742
I451
sS'humble'
p743
I2444
sS'inherit'
p744
I2737
sS'ocean'
p745
I1898
sS'ragged'
p746
I276
sS'greatest'
p747
I1691
sS'thing,'
p748
I2731
sS'hearts'
p749
I2194
sS'the'
p750
I15
sS'cure'
p751
I3768
sS'left'
p752
I261
sS'vexed'
p753
I3784
sS'mourners'
p754
I3421
sS'just'
p755
I3020
sS'wasteful'
p756
I677
sS'yea'
p757
I1464
sS'may,'
p758
I760
sS"poet's"
p759
I746
sS'unfair'
p760
I239
sS'repose'
p761
I1729
sS'seen'
p762
I2067
sS'burn:'
p763
I1867
sS'break,'
p764
I1303
sS'swears'
p765
I3601
sS'plight'
p766
I1091
sS'yet'
p767
I213
sS'succeeding'
p768
I820
sS'behold,'
p769
I893
sS'adding'
p770
I857
sS'dearer'
p771
I1242
sS'compeers'
p772
I2585
sS'had'
p773
I1244
sS'presagers'
p774
I937
sS'beloved'
p775
I446
sS'prison'
p776
I3534
sS'hap'
p777
I408
sS'pitiful'
p778
I3399
sS'save'
p779
I1074
sS'foot,'
p780
I2965
sS'gave'
p781
I513
sS'learned'
p782
I3546
sS"others'"
p783
I2408
sS'ye,'
p784
I1523
sS'swear,'
p785
I3501
sS'reviewest'
p786
I2311
sS'verse,'
p787
I862
sS'fill,'
p788
I3079
sS'unjust?'
p789
I3613
sS'birth'
p790
I1243
sS'wanting'
p791
I1025
sS'sleep,'
p792
I1542
sS'shadow'
p793
I1078
sS'dreams'
p794
I1543
sS"picture's"
p795
I1628
sS'desire'
p796
I4
sS'bad,'
p797
I3084
sS"feed'st"
p798
I33
sS'gift'
p799
I515
sS'new-found'
p800
I2348
sS'taste,'
p801
I3662
sS'chide,'
p802
I3052
sS'belong,'
p803
I1950
sS'vilest'
p804
I2254
sS'any,'
p805
I2858
sS'pencil,'
p806
I2873
sS'night'
p807
I1087
sS'hung'
p808
I1217
sS'hill,'
p809
I329
sS'antique'
p810
I750
sS'right'
p811
I2138
sS'old'
p812
I128
sS'discased,'
p813
I3895
sS'gait,'
p814
I3448
sS'flatter'
p815
I1116
sS'all-oblivious'
p816
I1869
sS'deaf'
p817
I1128
sS'short-numbered'
p818
I3376
sS'dead'
p819
I1561
sS'know.'
p820
I1826
sS'disdain:'
p821
I3635
sS'blazon'
p822
I2964
sS'dear'
p823
I1048
sS'bore'
p824
I3383
sS'guess'
p825
I2211
sS'pitch,'
p826
I2581
sS'know,'
p827
I1767
sS'creep'
p828
I3160
sS'enemies'
p829
I1100
sS'for'
p830
I151
sS"bosom's"
p831
I959
sS'bold,'
p832
I3334
sS'comments'
p833
I2551
sS'horse.'
p834
I2686
sS'antiquity,'
p835
I2042
sS'drudge'
p836
I3828
sS'burn'
p837
I795
sS'crow,'
p838
I3122
sS'chest,'
p839
I1697
sS'odour,'
p840
I1830
sS'shifting'
p841
I828
sS'losing'
p842
I1534
sS'taker'
p843
I3465
sS'told.'
p844
I3616
sS'disdains'
p845
I155
sS'shaken'
p846
I3285
sS'assemble:'
p847
I3139
sS'function,'
p848
I3103
sS'coral'
p849
I3476
sS'haply'
p850
I1148
sS'frailer'
p851
I3310
sS'o'
p852
I462
sS'grown'
p853
I1240
sS'quite,'
p854
I1004
sS'twain,'
p855
I1362
sS'wires,'
p856
I3482
sS'commit'
p857
I2383
sS'enjoyer,'
p858
I2330
sS'old?'
p859
I3614
sS'presence'
p860
I471
sS'civil'
p861
I1359
sS'pays'
p862
I2428
sS'nought'
p863
I648
sS'bound'
p864
I1934
sS'bath'
p865
I3866
sS'down'
p866
I1611
sS'lies'
p867
I989
sS'cries,'
p868
I1130
sS'disdain,'
p869
I3506
sS'refined'
p870
I2566
sS"pour'st"
p871
I1423
sS'strangely'
p872
I1711
sS'ruining?'
p873
I3391
sS'due,'
p874
I2200
sS'despised'
p875
I2861
sS'stage,'
p876
I916
sS'proved,'
p877
I3472
sS'sovereign'
p878
I1256
sS'dote.'
p879
I3655
sS'tame'
p880
I1941
sS'virgin'
p881
I3890
sS'why,'
p882
I3154
sS'perish:'
p883
I510
sS'way'
p884
I683
sS'array,'
p885
I3734
sS'call'
p886
I486
sS'was'
p887
I1284
sS'war'
p888
I360
sS'happy'
p889
I394
sS'so!'
p890
I1557
sS'head'
p891
I1055
sS'faring'
p892
I912
sS'form'
p893
I139
sS'err,'
p894
I3499
sS'crown'
p895
I2983
sS'spirit'
p896
I1894
sS'lie.'
p897
I1214
sS'so,'
p898
I497
sS'ah,'
p899
I406
sS'back'
p900
I169
sS'heinous'
p901
I810
sS'garments'
p902
I2681
sS'heat'
p903
I540
sS'perfumed'
p904
I1833
sS'odours'
p905
I1845
sS'same,'
p906
I238
sS'lie:'
p907
I3017
sS'removed'
p908
I1212
sS'true'
p909
I371
sS'deepest'
p910
I3291
sS'so?'
p911
I3780
sS'absent'
p912
I1491
sS'captive'
p913
I2152
sS'extremity'
p914
I1763
sS"for't"
p915
I2878
sS'olives'
p916
I2985
sS'bids'
p917
I1667
sS'lips'
p918
I3198
sS'until'
p919
I1615
sS'crystal'
p920
I1636
sS'unfathered'
p921
I2811
sS'adore'
p922
I336
sS'lays'
p923
I2824
sS'missed:'
p924
I3329
sS'bide'
p925
I1943
sS'alone:'
p926
I1455
sS'disgrace'
p927
I1122
sS'fury'
p928
I2840
sS'sinful'
p929
I2914
sS'eloquence,'
p930
I935
sS"beauty's"
p931
I8
sS'hungry'
p932
I1890
sS'huswife'
p933
I3690
sS'sometime'
p934
I763
sS'die.'
p935
I993
sS'die,'
p936
I12
sS'shines'
p937
I1556
sS'face'
p938
I136
sS'injurious'
p939
I1568
sS'count,'
p940
I126
sS'willingly'
p941
I2276
sS'looked'
p942
I2970
sS'song.'
p943
I751
sS'no'
p944
I271
sS'minds,'
p945
I3212
sS'when'
p946
I70
sS"lov'st"
p947
I365
sS'actor'
p948
I915
sS'bed,'
p949
I1047
sS'thriftless'
p950
I109
sS'adulterate'
p951
I3306
sS'falsely'
p952
I3777
sS'lays,'
p953
I2890
sS'pace,'
p954
I1769
sS'papers'
p955
I738
sS'tie'
p956
I2244
sS'vanished'
p957
I1182
sS'smell'
p958
I2220
sS'sue'
p959
I3553
sS'picture'
p960
I1664
sS'hooks,'
p961
I3595
sS'intend'
p962
I1063
sS'shine,'
p963
I1280
sS'pyramids'
p964
I3340
sS'injuries:'
p965
I3632
sS'first-born'
p966
I871
sS'commits,'
p967
I1490
sS'present-absent'
p968
I1601
sS'esteem,'
p969
I2851
sS'fell'
p970
I852
sS'restore'
p971
I3544
sS'shine?'
p972
I3568
sS'pierced'
p973
I1635
sS'died'
p974
I2179
sS'wrackful'
p975
I2105
sS'grief'
p976
I1482
sS'decayed,'
p977
I2417
sS'to-day'
p978
I1882
sS'longer'
p979
I566
sS'invent'
p980
I1420
sS'together'
p981
I633
sS'cheater'
p982
I3817
sS'guilty'
p983
I3053
sS'teeth'
p984
I791
sS"dian's"
p985
I3857
sS'alone.'
p986
I1222
sS'songs'
p987
I2943
sS'ensconce'
p988
I1718
sS'brow,'
p989
I75
sS'stay!'
p990
I1565
sS'whoever'
p991
I3558
sS'stay,'
p992
I673
sS'stay.'
p993
I2310
sS'varying'
p994
I2954
sS'sour,'
p995
I1918
sS'souls'
p996
I844
sS'endowed,'
p997
I512
sS'engrafted'
p998
I1409
sS'leads'
p999
I244
sS'continual'
p1000
I3356
sS'brow:'
p1001
I2184
sS'abundant'
p1002
I2808
sS'stay:'
p1003
I3696
sS'flattery'
p1004
I3141
sS'methods,'
p1005
I2349
sS'praises'
p1006
I2944
sS'usest,'
p1007
I1471
sS'father'
p1008
I1388
sS'confounds'
p1009
I248
sS'vex'
p1010
I2710
sS'granting,'
p1011
I2602
sS'peep,'
p1012
I970
sS'denote,'
p1013
I3781
sS'word,'
p1014
I2431
sS'suffered'
p1015
I3289
sS'cunning'
p1016
I3623
sS'addeth'
p1017
I3570
sS'furrows'
p1018
I892
sS'me'
p1019
I855
sS'prime,'
p1020
I173
sS'advantage'
p1021
I2077
sS'prime.'
p1022
I2236
sS'frown,'
p1023
I3222
sS'conscience'
p1024
I3816
sS'fleece'
p1025
I2188
sS'delves'
p1026
I1999
sS'child!'
p1027
I1962
sS'soul,'
p1028
I2028
sS'mourn'
p1029
I2247
sS'advised'
p1030
I1709
sS'word'
p1031
I2354
sS'trouble'
p1032
I1127
sS'child,'
p1033
I393
sS'feeble'
p1034
I345
sS'deceived'
p1035
I2714
sS'dote,'
p1036
I3779
sS"soul's"
p1037
I1028
sS'clouds'
p1038
I1113
sS'poor,'
p1039
I1412
sS'best,'
p1040
I2875
sS'did'
p1041
I229
sS'die'
p1042
I560
sS'dig'
p1043
I76
sS'pride.'
p1044
I1805
sS'leave'
p1045
I1501
sS'quick'
p1046
I1865
sS'praise.'
p1047
I110
sS'falsehood,'
p1048
I1682
sS'praise,'
p1049
I2243
sS'appear.'
p1050
I2453
sS'prevent'
p1051
I3228
sS'appear,'
p1052
I1211
sS'brave'
p1053
I523
sS'says'
p1054
I1640
sS'fearing'
p1055
I3171
sS"offender's"
p1056
I1316
sS'departest,'
p1057
I481
sS'sigh'
p1058
I1163
sS'wherefore'
p1059
I681
sS'appetite,'
p1060
I1881
sS'fear'
p1061
I399
sS'drinks'
p1062
I3143
sS'hymn'
p1063
I2562
sS'unswayed'
p1064
I3670
sS'curse'
p1065
I1131
sS'stands'
p1066
I2004
sS'assistance'
p1067
I2392
sS'contracted'
p1068
I27
sS'favour'
p1069
I973
sS'covetous,'
p1070
I3545
sS'suspect'
p1071
I3728
sS'pry,'
p1072
I2014
sS'goes'
p1073
I1982
sS'pine'
p1074
I3735
sS'contain,'
p1075
I2382
sS'live.'
p1076
I2435
sS'health,'
p1077
I1622
sS'filled'
p1078
I718
sS'drink,'
p1079
I3069
sS"april's"
p1080
I870
sS'prescriptions'
p1081
I3765
sS'wail'
p1082
I410
sS'honour'
p1083
I590
sS'clerk'
p1084
I2559
sS'lip,'
p1085
I2966
sS'water'
p1086
I1589
sS'deserts?'
p1087
I720
sS'repent,'
p1088
I1314
sS'told:'
p1089
I3351
sS'confounds,'
p1090
I3432
sS'foiled,'
p1091
I1001
sS'say,'
p1092
I926
sS'appears'
p1093
I2909
sS'change'
p1094
I463
sS'blunter'
p1095
I1880
sS'boy'
p1096
I3869
sS'bearer,'
p1097
I1757
sS'desired,'
p1098
I3873
sS'boast'
p1099
I3339
sS'root'
p1100
I1860
sS'wherever'
p1101
I1598
sS'intelligence,'
p1102
I2593
sS'catch,'
p1103
I3692
sS'spheres'
p1104
I3268
sS'action,'
p1105
I3451
sS'anew'
p1106
I3275
sS'stand.'
p1107
I3442
sS'shook'
p1108
I2927
sS'recounting'
p1109
I1623
sS'love'
p1110
I441
sS'case,'
p1111
I3007
sS'humour'
p1112
I2687
sS'compound'
p1113
I3395
sS'sympathized,'
p1114
I2501
sS'bloody'
p1115
I684
sS'withal'
p1116
I3872
sS'betraying'
p1117
I3819
sS'world-without-end'
p1118
I1913
sS'marble,'
p1119
I1847
sS'swallowed'
p1120
I3463
sS'aright?'
p1121
I3778
sS"suff'ring"
p1122
I1529
sS'wealth'
p1123
I2328
sS'prove'
p1124
I2620
sS'sake'
p1125
I1527
sS'angry'
p1126
I3764
sS'wane'
p1127
I478
sS'tears'
p1128
I3254
sS"batt'ring"
p1129
I2107
sS'wrongs'
p1130
I1488
sS'live'
p1131
I713
sS'seen!'
p1132
I2796
sS'prey'
p1133
I1694
sS'decease,'
p1134
I20
sS'memory'
p1135
I2064
sS'defeat,'
p1136
I2023
sS'scope'
p1137
I2017
sS'loving'
p1138
I1202
sS"love's"
p1139
I813
sS'fierce'
p1140
I792
sS'riot'
p1141
I1509
sS'sessions'
p1142
I1159
sS'towers'
p1143
I2072
sS'blood?'
p1144
I3309
sS'acceptable'
p1145
I223
sS"strength's"
p1146
I921
sS'drown'
p1147
I1169
sS'virtue'
p1148
I1840
sS'blood,'
p1149
I798
sS'robe'
p1150
I1799
sS'epitaph'
p1151
I2464
sS'impair'
p1152
I2523
sS'soul'
p1153
I3016
sS'wrong,'
p1154
I1483
sS'sport,'
p1155
I2773
sS'blame,'
p1156
I3454
sS'sour'
p1157
I1458
sS'can'
p1158
I611
sS'growing'
p1159
I1241
sS'making'
p1160
I40
sS'sovereign)'
p1161
I1915
sS'deceased'
p1162
I1229
sS'numbers'
p1163
I729
sS'heart'
p1164
I826
sS'dedicated'
p1165
I2484
sS"servant's"
p1166
I3746
sS'want'
p1167
I1418
sS'predict'
p1168
I623
sS'painted,'
p1169
I822
sS'kindness:'
p1170
I3849
sS'well-tuned'
p1171
I373
sS'famoused'
p1172
I996
sS'heard'
p1173
I3350
sS'critic'
p1174
I3097
sS'rite,'
p1175
I929
sS'expense,'
p1176
I2738
sS'purity'
p1177
I3725
sS'hides'
p1178
I724
sS"mak'st"
p1179
I66
sS'provoke'
p1180
I1745
sS'stole'
p1181
I2430
sS'churls'
p1182
I2214
sS"men's:"
p1183
I3782
sS'winter'
p1184
I247
sS'phoenix,'
p1185
I797
sS'divided'
p1186
I1450
sS'means'
p1187
I688
sS'vainly'
p1188
I3605
sS'thunder,'
p1189
I617
sS"lour'st"
p1190
I3798
sS'write'
p1191
I728
sS'till'
p1192
I850
sS'comment.'
p1193
I653
sS'pure'
p1194
I2234
sS'woos,'
p1195
I1498
sS'spies,'
p1196
I3311
sS'husbandry'
p1197
I589
sS'sworn'
p1198
I3848
sS'amiss,'
p1199
I1345
sS'belongs'
p1200
I2707
sS"eye's"
p1201
I1651
sS'map'
p1202
I2176
sS'mar'
p1203
I2917
sS'where-through'
p1204
I969
sS'may'
p1205
I420
sS'hide,'
p1206
I1749
sS'temperate:'
p1207
I754
sS'spot'
p1208
I2751
sS'fortune,'
p1209
I2660
sS'mad'
p1210
I3467
sS'blindness,'
p1211
I3852
sS'date'
p1212
I3325
sS"consum'st"
p1213
I403
sS'hateth'
p1214
I3794
sS'envy,'
p1215
I2245
sS'flourish'
p1216
I1997
sS'grow'
p1217
I3484
sS'man'
p1218
I838
sS'forged'
p1219
I3594
sS'doom:'
p1220
I3203
sS'speak,'
p1221
I1307
sS'remember'
p1222
I2259
sS'liquid'
p1223
I262
sS'policy'
p1224
I3243
sS'alchemy?'
p1225
I3131
sS'candles'
p1226
I883
sS'enemies,'
p1227
I3628
sS'alchemy:'
p1228
I1262
sS'memory:'
p1229
I25
sS'rude,'
p1230
I508
sS'rather'
p1231
I3349
sS'so'
p1232
I83
sS'silence'
p1233
I2520
sS'doom.'
p1234
I1876
sS'offend'
p1235
I377
sS'tall'
p1236
I2461
sS'memory.'
p1237
I670
sS'controlling,'
p1238
I841
sS'no,'
p1239
I2020
sS'augurs'
p1240
I2980
sS'wealth,'
p1241
I1403
sS'serving'
p1242
I322
sS'subscribes,'
p1243
I2991
sS'seeing'
p1244
I2209
sS'indeed'
p1245
I2038
sS'forfeit'
p1246
I2976
sS'wishing'
p1247
I1133
sS'no!'
p1248
I3338
sS'confounded,'
p1249
I2087
sS'years'
p1250
I1492
sS'course'
p1251
I773
sS'pitch'
p1252
I341
sS'view,'
p1253
I1080
sS'cruel:'
p1254
I50
sS'cold'
p1255
I494
sS'still'
p1256
I414
sS'birds'
p1257
I2288
sS'trifle'
p1258
I1678
sS'limbs'
p1259
I1050
sS'dead?'
p1260
I2583
sS'how'
p1261
I111
sS'muses'
p1262
I2556
sS'curls'
p1263
I531
sS'maid'
p1264
I3856
sS'invent,'
p1265
I2425
sS'tillage'
p1266
I156
sS'dead,'
p1267
I1200
sS'won,'
p1268
I1496
sS"stol'n"
p1269
I1209
sS'main'
p1270
I1988
sS'conquest'
p1271
I1627
sS'correspondence'
p1272
I3774
sS'bird,'
p1273
I3110
sS'truest'
p1274
I1679
sS'fearful'
p1275
I2115
sS'thereby'
p1276
I7
sS'thine,'
p1277
I480
sS'motion,'
p1278
I2938
sS'thine.'
p1279
I132
sS'devised,'
p1280
I2498
sS'year,'
p1281
I1825
sS'prefiguring,'
p1282
I2969
sS'half'
p1283
I726
sS'not'
p1284
I143
sS'beauteous,'
p1285
I1088
sS'twilight'
p1286
I2291
sS'year!'
p1287
I2793
sS'nor'
p1288
I269
sS'wont'
p1289
I2889
sS'cry,'
p1290
I2123
sS'term'
p1291
I2702
sS'name'
p1292
I1451
sS'remove.'
p1293
I3187
sS'servant'
p1294
I1920
sS'drop'
p1295
I2662
sS'die!'
p1296
I2712
sS'form,'
p1297
I1549
sS'decrease,'
p1298
I666
sS'esteeming,'
p1299
I2886
sS'breach'
p1300
I3840
sS'muse,'
p1301
I860
sS'forbid,'
p1302
I1928
sS'difference.'
p1303
I2953
sS"another's"
p1304
I2190
sS'worthier'
p1305
I2424
sS'beside.'
p1306
I2907
sS'richly'
p1307
I2552
sS'forbid?'
p1308
I2121
sS'fever'
p1309
I3755
sS'seeting'
p1310
I3865
sS'car,'
p1311
I343
sS'year'
p1312
I500
sS'disarmed.'
p1313
I3891
sS'hymns'
p1314
I1157
sS'morning'
p1315
I1252
sS'refusest.'
p1316
I1476
sS'living'
p1317
I308
sS'shown'
p1318
I3318
sS'(once'
p1319
I2472
sS'space'
p1320
I1570
sS'medicine'
p1321
I3248
sS'foregone,'
p1322
I1186
sS'confine'
p1323
I2529
sS'looking'
p1324
I1070
sS'thus,'
p1325
I3205
sS'boundless'
p1326
I2094
sS'thus.'
p1327
I3563
sS"play'st,"
p1328
I3425
sS'grecian'
p1329
I1820
sS'correct'
p1330
I3076
sS'shows'
p1331
I649
sS'(wide'
p1332
I2442
sS'siege'
p1333
I2106
sS'cars'
p1334
I3656
sS'sweet-seasoned'
p1335
I2321
sS'fire,'
p1336
I1597
sS'quite'
p1337
I255
sS'unrespected,'
p1338
I1541
sS'presage,'
p1339
I2981
sS'plea'
p1340
I1357
sS'twenty?'
p1341
I3841
sS'enlighten'
p1342
I3851
sS'care'
p1343
I3082
sS'show,'
p1344
I1550
sS"age's"
p1345
I2053
sS'embassage'
p1346
I1016
sS'featureless,'
p1347
I507
sS'dross;'
p1348
I3753
sS'contented'
p1349
I1143
sS"wand'rest"
p1350
I780
sS'honest'
p1351
I3846
sS'motion'
p1352
I1603
sS'thing'
p1353
I639
sS'lie'
p1354
I2117
sS'thine'
p1355
I29
sS'place'
p1356
I1582
sS'vision'
p1357
I3114
sS'sufferance'
p1358
I1942
sS'view'
p1359
I1540
sS'think'
p1360
I1149
sS'frequent'
p1361
I3210
sS'first'
p1362
I848
sS'blind'
p1363
I1072
sS'showers.'
p1364
I3381
sS'flower,'
p1365
I3111
sS'mayst'
p1366
I485
sS'waves'
p1367
I1978
sS'one'
p1368
I386
sS'nativity'
p1369
I1987
sS'consecrate'
p1370
I2313
sS'chide'
p1371
I381
sS'brain,'
p1372
I2388
sS'flower?'
p1373
I2102
sS'carry'
p1374
I2306
sS'sounds'
p1375
I3427
sS'open'
p1376
I1068
sS'eye,'
p1377
I402
sS'millions'
p1378
I1808
sS'friend.'
p1379
I2505
sS'interchange'
p1380
I2086
sS'little'
p1381
I643
sS'commend.'
p1382
I2204
sS'checked'
p1383
I252
sS'silent'
p1384
I1160
sS'fruit,'
p1385
I2812
sS'breed'
p1386
I291
sS'feel,'
p1387
I3279
sS'taken'
p1388
I3287
sS'steep'
p1389
I3861
sS'fiery'
p1390
I1776
sS'bounty'
p1391
I516
sS'white'
p1392
I548
sS"tiger's"
p1393
I793
sS'speaking'
p1394
I938
sS'gives'
p1395
I192
sS'gaudy'
p1396
I59
sS'eyes'
p1397
I348
sS'blanks,'
p1398
I2384
sS"beds'"
p1399
I3681
sS'on,'
p1400
I1737
sS'that'
p1401
I6
sS'brains'
p1402
I1957
sS"men's"
p1403
I843
sS'proving'
p1404
I130
sS'alas'
p1405
I3029
sS'girded'
p1406
I544
sS'flowers'
p1407
I872
sS'than'
p1408
I298
sS"stick'st"
p1409
I455
sS'give,'
p1410
I1220
sS'wide'
p1411
I806
sS'give.'
p1412
I576
sS'wert'
p1413
I847
sS'except.'
p1414
I3767
sS'lay:'
p1415
I2874
sS'folly'
p1416
I2146
sS'wilt,'
p1417
I445
sS'give?'
p1418
I207
sS'sin,'
p1419
I3673
sS'give:'
p1420
I1453
sS'were'
p1421
I105
sS'earth)'
p1422
I1155
sS'survey,'
p1423
I1782
sS'earth,'
p1424
I2093
sS'and'
p1425
I56
sS'spent?'
p1426
I3402
sS'page,'
p1427
I3013
sS"rud'st"
p1428
I3116
sS'spent:'
p1429
I2363
sS'angel'
p1430
I3715
sS'slay'
p1431
I3618
sS'revolt'
p1432
I2711
sS'confessed'
p1433
I3541
sS'foist'
p1434
I3348
sS'argument'
p1435
I2421
sS'jewels'
p1436
I1687
sS'sad'
p1437
I1189
sS'entombed'
p1438
I2477
sS'say'
p1439
I103
sS'perfumes'
p1440
I2932
sS'buried'
p1441
I1216
sS'anger'
p1442
I1747
sS'sap'
p1443
I251
sS'saw'
p1444
I2506
sS'any'
p1445
I442
sS'elsewhere'
p1446
I3630
sS'these'
p1447
I1145
sS'defaced'
p1448
I2068
sS'slave,'
p1449
I1929
sS'governs'
p1450
I3101
sS'aside'
p1451
I2347
sS'note'
p1452
I397
sS'wretch'
p1453
I1740
sS'take'
p1454
I1385
sS'resembling'
p1455
I330
sS'green'
p1456
I543
sS'pencil)'
p1457
I707
sS'blunt'
p1458
I783
sS'becoming'
p1459
I3808
sS'unmoved,'
p1460
I2734
sS'cheeks,'
p1461
I3488
sS'urge'
p1462
I3818
sS'maladies'
p1463
I3229
sS'sure'
p1464
I1683
sS'altered'
p1465
I2716
sS'statute'
p1466
I3551
sS'busy'
p1467
I3701
sS'tallies'
p1468
I3332
sS'knew'
p1469
I3152
sS'clearer'
p1470
I1552
sS'paid'
p1471
I1193
sS'taste.'
p1472
I2372
sS'unkindness'
p1473
I3284
sS'brief,'
p1474
I3346
sS'jewel.'
p1475
I3497
sS'lie,'
p1476
I1632
sS'flatterer'
p1477
I3098
sS'tract'
p1478
I353
sS'tongue-tied'
p1479
I2144
sS'so.'
p1480
I2946
sS'palate'
p1481
I3147
sS'winters'
p1482
I72
sS'(perhaps)'
p1483
I2265
sS'needing.'
p1484
I3242
sS'new-fired,'
p1485
I3868
sS'proud'
p1486
I81
sS"travel's"
p1487
I1725
sS"perfect'st"
p1488
I1771
sS'prepare'
p1489
I3148
sS'sunset'
p1490
I2292
sS'bending'
p1491
I2632
sS'duteous)'
p1492
I350
sS'not,'
p1493
I361
sS'need.'
p1494
I1761
sS'fed,'
p1495
I3754
sS'alone,'
p1496
I218
sS'buriest'
p1497
I63
sS'shop'
p1498
I960
sS'pride?'
p1499
I2343
sS'show'
p1500
I1019
sS'cheap'
p1501
I3033
sS'remote,'
p1502
I1573
sS'merit'
p1503
I1010
sS'savour,'
p1504
I3398
sS'pride,'
p1505
I2906
sS'trespass'
p1506
I1341
sS'bright'
p1507
I31
sS'equipage:'
p1508
I1249
sS'respects,'
p1509
I1710
sS'distempered'
p1510
I3876
sS'bearing:'
p1511
I3838
sS'slow'
p1512
I1755
sS'unkind'
p1513
I3277
sS'stormy'
p1514
I592
sS'title'
p1515
I1644
sS'pen'
p1516
I709
sS'treasure'
p1517
I100
sS'robs'
p1518
I2426
sS'state'
p1519
I668
sS'scorn,'
p1520
I2618
sS'weed,'
p1521
I2353
sS'only'
p1522
I57
sS'strange.'
p1523
I2723
sS'black'
p1524
I1086
sS'stain'
p1525
I1330
sS'wilfully'
p1526
I2452
sS"friend.'"
p1527
I1732
sS'seen,'
p1528
I1253
sS'mouthed'
p1529
I2373
sS"'tis"
p1530
I951
sS'limbecks'
p1531
I3256
sS'fled,'
p1532
I3775
sS'truly'
p1533
I879
sS'wrinkles,'
p1534
I2051
sS'cannot'
p1535
I1434
sS'main,'
p1536
I2083
sS'imprint'
p1537
I2369
sS'invited'
p1538
I3664
sS'suggest'
p1539
I3714
sS'closure'
p1540
I1699
sS'blind,'
p1541
I3105
sS'seldom'
p1542
I1786
sS'yield'
p1543
I2474
sS'untainted'
p1544
I817
sS'miles'
p1545
I1588
sS'releasing:'
p1546
I2599
sS'all-tyrant,'
p1547
I3792
sS'where'
p1548
I43
sS'melancholy.'
p1549
I1614
sS'husband'
p1550
I388
sS'down,'
p1551
I3217
sS'breeds.'
p1552
I3057
sS'despise,'
p1553
I3653
sS'moan.'
p1554
I1592
sS'moan,'
p1555
I1192
sS"monarch's"
p1556
I3127
sS'hurt,'
p1557
I2730
sS'exceeds?'
p1558
I3811
sS'finds,'
p1559
I3184
sS'reign)'
p1560
I1102
sS'up'
p1561
I314
sS'famine'
p1562
I42
sS'moan?'
p1563
I3800
sS'successive'
p1564
I3409
sS'salutation'
p1565
I3307
sS'ruined'
p1566
I2285
sS'(like'
p1567
I1150
sS'purest'
p1568
I2130
sS'wonder'
p1569
I1972
sS'come,'
p1570
I2679
sS'invoked'
p1571
I2391
sS'come)'
p1572
I1703
sS'compounds'
p1573
I2350
sS'crooked'
p1574
I1993
sS'date:'
p1575
I762
sS'ornament'
p1576
I863
sS'naked)'
p1577
I1031
sS'enough'
p1578
I1302
sS'complexion'
p1579
I768
sS'sable'
p1580
I530
sS'abuses,'
p1581
I3315
sS'enjoys'
p1582
I429
sS'man,'
p1583
I3672
sS'date,'
p1584
I890
sS'forsake'
p1585
I2638
sS'date.'
p1586
I1442
sS'rage,'
p1587
I747
sS'rage.'
p1588
I2075
sS'pluck'
p1589
I789
sS'blame'
p1590
I1470
sS'faults'
p1591
I2626
sS'feathered'
p1592
I3693
sS'reigns'
p1593
I1201
sS'sea,'
p1594
I2095
sS'down-rased,'
p1595
I2073
sS'profitless'
p1596
I208
sS'come'
p1597
I717
sS'grieved'
p1598
I1323
sS"gav'st,"
p1599
I2609
sS'way:'
p1600
I354
sS'check,'
p1601
I1944
sS'moon,'
p1602
I867
sS'many'
p1603
I694
sS'region'
p1604
I1287
sS'his)'
p1605
I2450
sS'west,'
p1606
I2294
sS'hopes,'
p1607
I3262
sS'way,'
p1608
I1297
sS'dwellers'
p1609
I3392
sS'gains?'
p1610
I2175
sS'suspect,'
p1611
I2225
sS"sea's"
p1612
I868
sS'duty'
p1613
I1011
sS'among'
p1614
I552
sS'shamefully'
p1615
I2134
sS'madness'
p1616
I3647
sS'afterwards'
p1617
I3155
sS'unthrifty'
p1618
I184
sS'lace'
p1619
I2157
sS'dispatch'
p1620
I3695
sS'wound,'
p1621
I1309
sS'stretched'
p1622
I748
sS'learning'
p1623
I2371
sS'proved'
p1624
I3042
sS'famished'
p1625
I1659
sS'amen,'
p1626
I2561
sS'rhyme?'
p1627
I690
sS'esteemed:'
p1628
I2779
sS'self-doing'
p1629
I1952
sS'west'
p1630
I1276
sS'mark'
p1631
I385
sS'breath'
p1632
I1838
sS'rhyme,'
p1633
I1234
sS"self's"
p1634
I583
sS'truth,'
p1635
I2003
sS'esteemed,'
p1636
I3299
sS'mars'
p1637
I1862
sS'divine,'
p1638
I3004
sS'virtuous,'
p1639
I2621
sS'evil,'
p1640
I3720
sS'idolatry,'
p1641
I2940
sS'straying'
p1642
I1507
sS'robbed'
p1643
I3680
sS'thousand'
p1644
I998
sS'blessing'
p1645
I2487
sS'wretched'
p1646
I3265
sS'dates'
p1647
I3345
sS'steep-up'
p1648
I327
sS'buried.'
p1649
I1204
sS'nobler'
p1650
I3821
sS'buried,'
p1651
I990
sS'frantic-mad'
p1652
I3769
sS'extant'
p1653
I2514
sS'careful'
p1654
I1676
sS'deceivest'
p1655
I1473
sS'those'
p1656
I198
sS'case'
p1657
I1728
sS'impiety,'
p1658
I2155
sS'scarlet'
p1659
I3677
sS'life?'
p1660
I405
sS'sheaves'
p1661
I545
sS'plagues,'
p1662
I607
sS'breast,'
p1663
I939
sS'art?'
p1664
I902
sS'rolling:'
p1665
I833
sS'gazers'
p1666
I2790
sS'cast'
p1667
I1705
sS'warning'
p1668
I2251
sS'transgression'
p1669
I3280
sS'wantonness,'
p1670
I2772
sS'cancelled'
p1671
I1177
sS'life.'
p1672
I2066
sS'vial;'
p1673
I281
sS'life,'
p1674
I725
sS'found,'
p1675
I3858
sS'art,'
p1676
I299
sS'anchored'
p1677
I3590
sS'art.'
p1678
I955
sS'forbear'
p1679
I3620
sS'soil'
p1680
I2080
sS'crowned'
p1681
I1407
sS'profane)'
p1682
I2654
sS'sleeping'
p1683
I3889
sS'middle'
p1684
I333
sS'birth,'
p1685
I1402
sS'limping'
p1686
I2141
sS'return'
p1687
I1090
sS'fame'
p1688
I2547
sS'different'
p1689
I2826
sS'husbandry?'
p1690
I157
sS'charge?'
p1691
I3744
sS'pay'
p1692
I287
sS'same'
p1693
I2205
sS'check'
p1694
I3572
sS'thief.'
p1695
I1695
sS'shifts'
p1696
I428
sS'distilled'
p1697
I3255
sS'praised,'
p1698
I2569
sS'figures'
p1699
I2834
sS'ladies'
p1700
I2962
sS"'truth"
p1701
I2869
sS'song,'
p1702
I2841
sS'abhor,'
p1703
I3813
sS'wires'
p1704
I3483
sS'faculty'
p1705
I3326
sS'sickness'
p1706
I3233
sS'weed'
p1707
I90
sS'forgot,'
p1708
I2262
sS'changing'
p1709
I772
sS'weep'
p1710
I1175
sS"slander's"
p1711
I2224
sS'convert:'
p1712
I637
sS'vowed'
p1713
I3882
sS'canopy,'
p1714
I3384
sS'(dear'
p1715
I2272
sS'dear-purchased'
p1716
I3213
sS'throned'
p1717
I2777
sS'argument.'
p1718
I2853
sS'love.'
p1719
I3043
sS'argument,'
p1720
I1425
sS'vacant'
p1721
I2367
sS'bow,'
p1722
I2661
sS'young,'
p1723
I3607
sS'know'
p1724
I1741
sS'heir,'
p1725
I3410
sS'without'
p1726
I492
sS'relief'
p1727
I1319
sS'argument:'
p1728
I2359
sS'justify'
p1729
I3617
sS'summer'
p1730
I245
sS'peace'
p1731
I2324
sS'am,'
p1732
I3314
sS'(hung'
p1733
I1082
sS'being'
p1734
I96
sS'fears'
p1735
I3261
sS'weeds'
p1736
I3359
sS'rest'
p1737
I1005
sS'expiate.'
p1738
I895
sS'bareness'
p1739
I257
sS'(i'
p1740
I1558
sS'kill'
p1741
I1893
sS'touch'
p1742
I3871
sS'aspect,'
p1743
I1039
sS'speed'
p1744
I1743
sS'guides'
p1745
I1035
sS'style,'
p1746
I2411
sS'blow'
p1747
I3368
sS'death'
p1748
I303
sS'grounded'
p1749
I2031
sS'above,'
p1750
I3039
sS'thinking'
p1751
I2263
sS'rose'
p1752
I9
sS'strange?'
p1753
I2351
sS'seems'
p1754
I2923
sS"summer's"
p1755
I259
sS'strange:'
p1756
I2651
sS"summers'"
p1757
I2928
sS'wisdom,'
p1758
I490
sS'verse'
p1759
I716
sS'quality,'
p1760
I610
sS'dully'
p1761
I1736
sS'strange,'
p1762
I3342
sS'valley-fountain'
p1763
I3862
sS'moiety,'
p1764
I1652
sS'sake?'
p1765
I3793
sS'wife,'
p1766
I412
sS'misplaced,'
p1767
I2135
sS'frown'
p1768
I991
sS'kills'
p1769
I1584
sS'read'
p1770
I630
sS'sums'
p1771
I212
sS'dart'
p1772
I3631
sS'basest'
p1773
I1265
sS'sight.'
p1774
I1183
sS'sight,'
p1775
I321
sS'traffic'
p1776
I217
sS'calls:'
p1777
I3373
sS'confined'
p1778
I2977
sS'world'
p1779
I409
sS'assailed,'
p1780
I2240
sS'found)'
p1781
I2509
sS'found.'
p1782
I2329
sS'gate,'
p1783
I1158
sS'acquainted'
p1784
I827
sS'fortune'
p1785
I612
sS'hell.'
p1786
I3730
sS'tables'
p1787
I3336
sS'feature.'
p1788
I3125
sS'benefit'
p1789
I1093
sS'seem,'
p1790
I1827
sS'either'
p1791
I1671
sS'robbery'
p1792
I1478
sS'offenders'
p1793
I1520
sS'warrantise'
p1794
I3810
sS'four,'
p1795
I1609
sS'fulfil'
p1796
I3578
sS'express,'
p1797
I3636
sS'falsehood'
p1798
I3593
sS"bestow'st,"
p1799
I484
sS'act'
p1800
I3834
sS'done,'
p1801
I966
sS'divine'
p1802
I3751
sS'thinks'
p1803
I3606
sS'wanting,'
p1804
I2606
sS'gross'
p1805
I3822
sS'theirs,'
p1806
I832
sS'courses'
p1807
I1966
sS'lend'
p1808
I2843
sS'stops'
p1809
I2893
sS'moon'
p1810
I1332
sS'forgoing'
p1811
I3397
sS'arrest,'
p1812
I2304
sS'knit;'
p1813
I1013
sS'self-loving'
p1814
I2045
sS'destroys'
p1815
I436
sS'think,'
p1816
I3074
sS'recured,'
p1817
I1618
sS'power'
p1818
I2729
sS'prove,'
p1819
I476
sS'blest'
p1820
I1904
sS'strained'
p1821
I2499
sS'arts'
p1822
I2412
sS'devil:'
p1823
I3723
sS'burthens'
p1824
I2901
sS'prove.'
p1825
I2274
sS'precious)'
p1826
I2573
sS'pen.'
p1827
I2567
sS'unseen,'
p1828
I3230
sS'throw'
p1829
I3094
sS'free:'
p1830
I200
sS'subdued'
p1831
I3061
sS'zealous'
p1832
I1064
sS'of'
p1833
I91
sS'out:'
p1834
I3108
sS'spacious,'
p1835
I3564
sS'own,'
p1836
I2206
sS'whence'
p1837
I1700
sS'journey'
p1838
I1054
sS'wolf'
p1839
I2786
sS'stand'
p1840
I691
sS'free,'
p1841
I3404
sS'mixed'
p1842
I3405
sS"bear'st"
p1843
I440
sS'out,'
p1844
I2104
sS'passion,'
p1845
I825
sS'such,'
p1846
I2945
sS'imitated'
p1847
I1816
sS'widowed'
p1848
I2804
sS'long-lived'
p1849
I796
sS'burning'
p1850
I315
sS"put'st"
p1851
I3552
sS'image'
p1852
I957
sS'pluck,'
p1853
I600
sS'blessed'
p1854
I689
sS'rising'
p1855
I3826
sS'lively'
p1856
I2171
sS'vantage,'
p1857
I2636
sS'dreaming'
p1858
I2974
sS'wit,'
p1859
I1404
sS'wit.'
p1860
I1020
sS'longing'
p1861
I3756
sS'your'
p1862
I564
sS'buds'
p1863
I759
sS"oaths'"
p1864
I3839
sS'fast'
p1865
I477
sS'woes'
p1866
I1166
sS'her'
p1867
I172
sS'abuse,'
p1868
I203
sS'abuse.'
p1869
I3557
sS'there'
p1870
I815
sS'disposed'
p1871
I2617
sS'sides'
p1872
I3611
sS'stealth'
p1873
I2378
sS'gaze'
p1874
I231
sS"seasons'"
p1875
I609
sS'stars'
p1876
I598
sS'fairing'
p1877
I3412
sS'white:'
p1878
I534
sS'you,'
p1879
I1817
sS'gift,'
p1880
I3319
sS'groan'
p1881
I3520
sS'asleep,'
p1882
I3855
sS"'will'"
p1883
I3560
sS'weeds:'
p1884
I2221
sS'account,'
p1885
I2034
sS"dyer's"
p1886
I3063
sS'strikes'
p1887
I389
sS'you?'
p1888
I2528
sS'fixed,'
p1889
I2872
sS'amazeth.'
p1890
I845
sS'another,'
p1891
I140
sS'level'
p1892
I3221
sS'with'
p1893
I37
sS'happies'
p1894
I286
sS'applying'
p1895
I3260
sS'rage'
p1896
I594
sS'fiend,'
p1897
I3727
sS'are,'
p1898
I1689
sS'fate,'
p1899
I1132
sS'self-same'
p1900
I659
sS'betray,'
p1901
I2787
sS'censures'
p1902
I3776
sS'he,'
p1903
I2584
sS'are:'
p1904
I1348
sS'bud.'
p1905
I1337
sS'faces.'
p1906
I737
sS'strongly'
p1907
I1012
sS'gone'
p1908
I1607
sS'celestial'
p1909
I1269
sS'fist'
p1910
I3549
sS'brand,'
p1911
I3060
sS'taste'
p1912
I1475
sS'ah'
p1913
I2153
sS'accents'
p1914
I2207
sS'stealing'
p1915
I1274
sS'am'
p1916
I887
sS'deep'
p1917
I77
sS'an'
p1918
I106
sS'excusing'
p1919
I1346
sS'deem'
p1920
I1829
sS'gaol.'
p1921
I3540
sS'at'
p1922
I473
sS'hearts,'
p1923
I1197
sS'determination,'
p1924
I580
sS'ay'
p1925
I1503
sS'spends'
p1926
I2439
sS'fill'
p1927
I1889
sS'again'
p1928
I581
sS'smiling'
p1929
I3365
sS'dye,'
p1930
I1832
sS'resemble,'
p1931
I3135
sS'deserve'
p1932
I3688
sS"helen's"
p1933
I1818
sS'prize,'
p1934
I3827
sS'incertainties'
p1935
I2982
sS'everywhere!'
p1936
I2798
sS'roses'
p1937
I1324
sS"wand'ring"
p1938
I3191
sS'mistaking,'
p1939
I2612
sS'call,'
p1940
I1467
sS'you'
p1941
I563
sS'rehearse?'
p1942
I1429
sS'everywhere.'
p1943
I2862
sS'poor'
p1944
I1023
sS'spend,'
p1945
I187
sS'move,'
p1946
I1674
sS'politic,'
p1947
I3378
sS'speed,'
p1948
I1758
sS'time'
p1949
I19
sS'gifts'
p1950
I2921
sS'spend?'
p1951
I3740
sS'flower'
p1952
I2217
sS'spend;'
p1953
I1909
sS'brass'
p1954
I2074
sS'quest,'
p1955
I3470
sS'sequent'
p1956
I1983
sS'backward'
p1957
I1963
sS'fool,'
p1958
I3196
sS'calls'
p1959
I168
sS"life's"
p1960
I1616
sS'rose,'
p1961
I2750
sS'sword,'
p1962
I1863
sS'hugely'
p1963
I3377
sS'apparel'
p1964
I1041
sS'tanned'
p1965
I2041
sS'treason,'
p1966
I3823
sS'all'
p1967
I98
sS'consider'
p1968
I638
sS'pointing'
p1969
I616
sS'neglected'
p1970
I3697
sS'forbidden'
p1971
I284
sS'lack'
p1972
I1164
sS'son,'
p1973
I1499
sS'worms'
p1974
I2255
sS'importune'
p1975
I3686
sS'seals'
p1976
I2295
sS'sunk'
p1977
I525
sS"'gainst"
p1978
I454
sS'wherewith'
p1979
I1991
sS'(if'
p1980
I1701
sS'welfare'
p1981
I3239
sS'bower,'
p1982
I3415
sS'religious'
p1983
I1208
sS'(all'
p1984
I1030
sS'wakened'
p1985
I3224
sS'directed.'
p1986
I1546
sS'wanton'
p1987
I2802
sS'duty,'
p1988
I1018
sS'homage'
p1989
I319
sS'is)'
p1990
I2443
sS'sparkling'
p1991
I1118
sS'former'
p1992
I1887
sS'to'
p1993
I28
sS'present'
p1994
I1673
sS'deserving?'
p1995
I2604
sS'dressing'
p1996
I2360
sS'mother,'
p1997
I395
sS'health'
p1998
I3643
sS'mother.'
p1999
I150
sS'hideous'
p2000
I246
sS'paying'
p2001
I3393
sS'woman'
p2002
I846
sS'returned'
p2003
I1620
sS'insults'
p2004
I2992
sS'chips,'
p2005
I3446
sS'very'
p2006
I237
sS'uphold,'
p2007
I591
sS'debtor'
p2008
I3555
sS'possessed,'
p2009
I1138
sS'toiled:'
p2010
I1007
sS'worst'
p2011
I2680
sS'minded'
p2012
I496
sS'sun,'
p2013
I1333
sS'fall'
p2014
I588
sS'cease,'
p2015
I498
sS'vouchsafe'
p2016
I1236
sS'heaven'
p2017
I624
sS'stained,'
p2018
I3027
sS'broken,'
p2019
I2009
sS'silvered'
p2020
I532
sS'sought,'
p2021
I1165
sS'small'
p2022
I92
sS"t'"
p2023
I3244
sS'tender'
p2024
I22
sS"i'll"
p2025
I2619
sS'quicker'
p2026
I1605
sS'ten'
p2027
I294
sS'dwell:'
p2028
I2256
sS'outworn'
p2029
I2071
sS'hour,'
p2030
I1914
sS'past'
p2031
I529
sS'winds'
p2032
I756
sS'alters'
p2033
I3182
sS'titles'
p2034
I976
sS'perspective'
p2035
I953
sS'pass'
p2036
I2919
sS'harder'
p2037
I3528
sS'affable'
p2038
I2588
sS'befriends'
p2039
I3278
sS'dwell,'
p2040
I2536
sS'creatures'
p2041
I2
sS'allow?'
p2042
I3085
sS'what'
p2043
I222
sS"present'st"
p2044
I2233
sS'usury,'
p2045
I285
sS'darkness'
p2046
I1071
sS'sweetly'
p2047
I380
sS'clock'
p2048
I519
sS'sun'
p2049
I866
sS'sum'
p2050
I124
sS'extreme,'
p2051
I3456
sS'brief'
p2052
I613
sS'him.'
p2053
I2823
sS'fadeth'
p2054
I2293
sS'him,'
p2055
I1136
sS'allow,'
p2056
I818
sS'foison'
p2057
I1824
sS'ill-wresting'
p2058
I3648
sS'nurse'
p2059
I910
sS'retention'
p2060
I3330
sS'public'
p2061
I975
sS'womb'
p2062
I154
sS'creature,'
p2063
I3119
sS'quenched'
p2064
I3892
sS'full'
p2065
I1250
sS'harsh,'
p2066
I506
sS'love-suit'
p2067
I3576
sS'answers'
p2068
I1750
sS'revenge'
p2069
I3799
sS'hours'
p2070
I226
sS'care,'
p2071
I1693
sS'elsewhere;'
p2072
I3619
sS'sepulchres,'
p2073
I2186
sS'hast'
p2074
I416
sS'strong'
p2075
I331
sS'pleasant'
p2076
I2897
sS'cherish:'
p2077
I517
sS'enmity'
p2078
I1870
sS'reason'
p2079
I3153
sS'simply'
p2080
I3608
sS'figure,'
p2081
I2936
sS'action'
p2082
I2100
sS'crime,'
p2083
I811
sS'adieu.'
p2084
I1921
sS'sweetness'
p2085
I2728
sS"day's"
p2086
I1095
sS'born,'
p2087
I2126
sS'commence:'
p2088
I1358
sS'outworn,'
p2089
I2177
sS'tendered'
p2090
I3294
sS'bright,'
p2091
I1111
sS'substance,'
p2092
I1806
sS"lion's"
p2093
I784
sS'story.'
p2094
I2541
sS'unthrift'
p2095
I426
sS'reap,'
p2096
I3438
sS'self-love'
p2097
I163
sS'eye'
p2098
I233
sS'takes'
p2099
I1389
sS'cherubins'
p2100
I3134
sS'possessing,'
p2101
I2597
sS'faint'
p2102
I2436
sS'two'
p2103
I1361
sS'guard,'
p2104
I3538
sS'flowers,'
p2105
I700
sS'praised'
p2106
I2880
sS'morn'
p2107
I1279
sS'knights,'
p2108
I2963
sS'injury'
p2109
I3009
sS'halt:'
p2110
I2643
sS'leisure.'
p2111
I1935
sS'more'
p2112
I113
sS'horses'
p2113
I2699
sS'carcanet.'
p2114
I1795
sS'unlearned'
p2115
I3603
sS'weight'
p2116
I1738
sS'knows'
p2117
I722
sS'go,'
p2118
I555
sS'thus'
p2119
I1521
sS'spoils'
p2120
I2860
sS'gravity;'
p2121
I1717
sS'excuse'
p2122
I1522
sS'controlling'
p2123
I2148
sS'broke'
p2124
I3694
sS'graven'
p2125
I2857
sS'known'
p2126
I1485
sS'mounted'
p2127
I1765
sS'glad'
p2128
I799
sS'feeding;'
p2129
I3238
sS'commanded'
p2130
I3803
sS'over-goes'
p2131
I2910
sS'none'
p2132
I448
sS'honouring,'
p2133
I3386
sS'hour'
p2134
I1285
sS'remain'
p2135
I3323
sS'nine'
p2136
I1438
sS'voices,'
p2137
I3095
sS'take,'
p2138
I2468
sS'nothing.'
p2139
I859
sS'history'
p2140
I2720
sS'beautiful'
p2141
I2961
sS'disgrace,'
p2142
I2649
sS'compare'
p2143
I752
sS'disgrace.'
p2144
I2913
sS'derive,'
p2145
I627
sS'visage'
p2146
I1272
sS'forth,'
p2147
I1872
sS'strangely:'
p2148
I3038
sS'share'
p2149
I1670
sS'thievish'
p2150
I2379
sS'hours,'
p2151
I693
sS'disgrace:'
p2152
I1277
sS'sharp'
p2153
I1752
sS'dress'
p2154
I2193
sS'string'
p2155
I387
sS'huge'
p2156
I645
sS'needs'
p2157
I2870
sS'drained'
p2158
I2049
sS'needy'
p2159
I2127
sS"'thus"
p2160
I1730
sS'comfort'
p2161
I1399
sS'chopt'
p2162
I2040
sS"adder's"
p2163
I3096
sS'glowing'
p2164
I2297
sS"heart's"
p2165
I1653
sS'sacred'
p2166
I324
sS'bide?'
p2167
I3626
sS'state!'
p2168
I2791
sS'lack,'
p2169
I3422
sS'rude'
p2170
I1228
sS'engrossed,'
p2171
I3529
sS'seeming,'
p2172
I2883
sS'state,'
p2173
I1126
sS'latch,'
p2174
I3112
sS"'greeing,"
p2175
I3146
sS'blood'
p2176
I482
sS'coming'
p2177
I571
sS'replete'
p2178
I920
sS'a'
p2179
I41
sS'refuse'
p2180
I3809
sS'short'
p2181
I761
sS'tomb.'
p2182
I2525
sS'pomp,'
p2183
I3366
sS'shady'
p2184
I2377
sS'children'
p2185
I2385
sS'thou,'
p2186
I1686
sS'dear,'
p2187
I3034
sS'shade'
p2188
I1555
sS'perjured'
p2189
I3842
sS'pleasure'
p2190
I369
sS"gav'st"
p2191
I2611
sS'penury'
p2192
I2535
sS'need,'
p2193
I2507
sS"that's"
p2194
I290
sS'help'
p2195
I2455
sS'untutored'
p2196
I3602
sS'winged'
p2197
I1766
sS'stays'
p2198
I3824
sS'remover'
p2199
I3186
sS'soon'
p2200
I1581
sS'disabled'
p2201
I2143
sS'paper'
p2202
I1428
sS'through'
p2203
I174
sS'signs'
p2204
I2181
sS'hell'
p2205
I3258
sS'looks,'
p2206
I2719
sS'suffer'
p2207
I1936
sS'saucy'
p2208
I2447
sS'style'
p2209
I2548
sS'pent'
p2210
I264
sS'truth:'
p2211
I1512
sS'termed'
p2212
I745
sS'inward'
p2213
I711
sS'deeds'
p2214
I1392
sS'bosom'
p2215
I1195
sS'teeming'
p2216
I2799
sS'fair,'
p2217
I882
sS'late'
p2218
I2287
sS'truth.'
p2219
I1400
sS'absence'
p2220
I1456
sS'strange'
p2221
I1809
sS'threescore'
p2222
I499
sS'fair:'
p2223
I3716
sS'cool'
p2224
I3893
sS'might'
p2225
I10
sS'alter'
p2226
I1373
sS'crawls'
p2227
I1989
sS'fool'
p2228
I3586
sS'it,'
p2229
I2261
sS'good'
p2230
I964
sS'tyrants'
p2231
I236
sS'kingly'
p2232
I3142
sS'seeking'
p2233
I457
sS'food'
p2234
I2320
sS'storm-beaten'
p2235
I1305
sS'speechless'
p2236
I2993
sS'it?'
p2237
I3783
sS'walls'
p2238
I265
sS'nymphs'
p2239
I3881
sS'it:'
p2240
I437
sS'it;'
p2241
I430
sS'stain,'
p2242
I3022
sS'foot'
p2243
I1575
sS'torn,'
p2244
I3836
sS'antiquity'
p2245
I3011
sS'complain'
p2246
I1106
sS'great,'
p2247
I1021
sS'likeness'
p2248
I3671
sS'imprisoned'
p2249
I1804
sS'fears,'
p2250
I2972
sS'always'
p2251
I2358
sS'all,'
p2252
I1405
sS'truths'
p2253
I2781
sS'wronk:'
p2254
I2655
sS'tear'
p2255
I1207
sS'expressing,'
p2256
I2952
sS'stopped'
p2257
I3099
sS'turns'
p2258
I965
sS'found'
p2259
I1535
sS'pen,'
p2260
I816
sS'heavy'
p2261
I1563
sS'weighs'
p2262
I3008
sS'proud-pied'
p2263
I2816
sS'cost'
p2264
I2070
sS'bends'
p2265
I3185
sS'posterity?'
p2266
I165
sS'parts,'
p2267
I1203
sS'house'
p2268
I587
sS'hard'
p2269
I3292
sS'oppressed'
p2270
I1613
sS'hounds,'
p2271
I2685
sS'deeds,'
p2272
I2213
sS'surly'
p2273
I2249
sS"nature's"
p2274
I190
sS'first,'
p2275
I3140
sS'slave'
p2276
I1906
sS'beyond'
p2277
I3324
sS'overturn,'
p2278
I1858
sS'orient'
p2279
I310
sS'parts:'
p2280
I727
sS'travels'
p2281
I3019
sS'lovers'
p2282
I1219
sS'join'
p2283
I2659
sS'since'
p2284
I556
sS'publish'
p2285
I2888
sS'paws,'
p2286
I785
sS'darling'
p2287
I758
sS'issue'
p2288
I584
sS'warmed,'
p2289
I3888
sS'stewards'
p2290
I2743
sS'boldness'
p2291
I3440
sS'even.'
p2292
I1121
sS'fore-bemoaned'
p2293
I1191
sS'forgive'
p2294
I1477
sS'cross.'
p2295
I1322
sS'cross,'
p2296
I1538
sS'base'
p2297
I1295
sS'put'
p2298
I917
sS'teach'
p2299
I1727
sS'reproach'
p2300
I3300
sS"know'st"
p2301
I1526
sS'nightly'
p2302
I2591
sS'owners'
p2303
I2741
sS'service'
p2304
I3801
sS'lover:'
p2305
I1230
sS"woman's"
p2306
I821
sS'noted'
p2307
I2352
sS'trust,'
p2308
I924
sS'sicken'
p2309
I3231
sS'sweets:'
p2310
I808
sS'black,'
p2311
I3419
sS'dispraise,'
p2312
I2758
sS'corrupting'
p2313
I1343
sS'trust!'
p2314
I1685
sS'hawks'
p2315
I2684
sS'gazed'
p2316
I84
sS'seeming'
p2317
I2162
sS'forwards'
p2318
I1985
sS'excel:'
p2319
I242
sS'feel'
p2320
I1698
sS'treasure,'
p2321
I1781
sS'number'
p2322
I730
sS'breathers'
p2323
I2481
sS'elder'
p2324
I901
sS'revolution'
p2325
I1976
sS'done'
p2326
I2677
sS'slept'
p2327
I2512
sS'moan'
p2328
I1179
sS'horse'
p2329
I1768
sS'extern'
p2330
I3385
sS'dispense.'
p2331
I3100
sS'errors'
p2332
I2780
sS'thoughts,'
p2333
I1647
sS'rondure'
p2334
I877
sS'bay'
p2335
I3591
sS'slanderers'
p2336
I3649
sS'least'
p2337
I474
sS'hallowed'
p2338
I3005
sS'double-vantage'
p2339
I2637
sS'name!'
p2340
I2753
sS'passed'
p2341
I2237
sS'essays'
p2342
I3041
sS'hundred'
p2343
I1965
sS'suppose,'
p2344
I1925
sS'store'
p2345
I635
sS'lease'
p2346
I578
sS'youngly'
p2347
I483
sS'selling'
p2348
I3752
sS'imperfect'
p2349
I1562
sS'saint'
p2350
I3722
sS'cup.'
p2351
I3149
sS'behind'
p2352
I3474
sS'costs,'
p2353
I2698
sS'defect,'
p2354
I2223
sS'adonis'
p2355
I1813
sS'gems:'
p2356
I869
sS'believe'
p2357
I715
sS"what's"
p2358
I2995
sS'grace'
p2359
I1112
sS'smell,'
p2360
I3663
sS'king'
p2361
I2056
sS'kind'
p2362
I2759
sS'grew'
p2363
I3247
sS'mortality'
p2364
I2096
sS'double'
p2365
I2404
sS'anticipate'
p2366
I3245
sS'pain.'
p2367
I3508
sS'afloat,'
p2368
I2456
sS'head:'
p2369
I3485
sS'shallowest'
p2370
I2454
sS'youth'
p2371
I332
sS'pilgrimage:'
p2372
I339
sS'autumn'
p2373
I2800
sS'determined'
p2374
I1650
sS'contrary'
p2375
I2043
sS'supposed'
p2376
I1199
sS'excellence:'
p2377
I2744
sS'head,'
p2378
I316
sS'restful'
p2379
I2122
sS'thrall,'
p2380
I3896
sS'afar'
p2381
I3709
sS'tongues'
p2382
I2196
sS'bad'
p2383
I3137
sS'trifles'
p2384
I1688
sS'well'
p2385
I419
sS'mend:'
p2386
I2195
sS'ages'
p2387
I2881
sS'livery'
p2388
I82
sS'measure,'
p2389
I2692
sS'approve,'
p2390
I2230
sS'showers'
p2391
I2322
sS'perjured,'
p2392
I3452
sS'travail'
p2393
I2423
sS'fading'
p2394
I807
sS'sensual'
p2395
I1349
sS'mountain'
p2396
I1254
sS'built'
p2397
I3274
sS'drunk'
p2398
I3252
sS'dancing'
p2399
I3445
sS'fashion,'
p2400
I831
sS'self'
p2401
I46
sS'wish,'
p2402
I3559
sS'pity-wanting'
p2403
I3638
sS'onset'
p2404
I2678
sS'concealed,'
p2405
I2627
sS'lifts'
p2406
I313
sS'finding'
p2407
I2490
sS'rent'
p2408
I3394
sS'chary'
p2409
I909
sS"art's"
p2410
I3413
sS"'had"
p2411
I1237
sS'towards'
p2412
I1979
sS'reckon'
p2413
I3316
sS'drowns'
p2414
I3380
sS'unused'
p2415
I434
sS'most'
p2416
I449
sS'age,'
p2417
I334
sS'fight,'
p2418
I997
sS'age)'
p2419
I740
sS'blunting'
p2420
I1783
sS'nothing'
p2421
I193
sS'seasons'
p2422
I801
sS"o'ercharged"
p2423
I932
sS'measured'
p2424
I1731
sS'tongue,'
p2425
I743
sS'being,'
p2426
I3301
sS'tied?'
p2427
I3596
sS'chronicle'
p2428
I2957
sS'feasting'
p2429
I2335
sS'windows'
p2430
I175
sS'builded'
p2431
I3362
sS'clear'
p2432
I1551
sS'sometimes'
p2433
I1746
sS'cover'
p2434
I896
sS'expressed,'
p2435
I2967
sS'night?'
p2436
I2007
sS"lily's"
p2437
I2831
sS'part'
p2438
I1416
sS'reeleth'
p2439
I346
sS'barren'
p2440
I537
sS'night)'
p2441
I1084
sS'eisel'
p2442
I3071
sS'night,'
p2443
I526
sS'lying'
p2444
I3879
sS'stones'
p2445
I1791
sS'self-substantial'
p2446
I38
sS'prone,'
p2447
I3661
sS'gold'
p2448
I767
sS'gates'
p2449
I2112
sS"y'have"
p2450
I3286
sS'wailing'
p2451
I1516
sS'fond'
p2452
I161
sS'to-day,'
p2453
I2947
sS'rhymers'
p2454
I1439
sS'wasted'
p2455
I2958
sS'beard:'
p2456
I550
sS'registers'
p2457
I3352
sS'meditation,'
p2458
I2116
sS'gain,'
p2459
I1533
sS'fine'
p2460
I1784
sS'find'
p2461
I579
sS'sportive'
p2462
I3308
sS'gilded'
p2463
I1848
sS'majesty,'
p2464
I325
sS'shouldst'
p2465
I305
sS'deserts'
p2466
I3207
sS'ruin'
p2467
I2088
sS'less'
p2468
I742
sS'meetness,'
p2469
I3240
sS"murd'rous,"
p2470
I3453
sS'eyes?'
p2471
I3804
sS'pleasure.'
p2472
I1787
sS'tempests'
p2473
I3189
sS'beauteous'
p2474
I201
sS"painter's"
p2475
I954
sS'greater.'
p2476
I3276
sS'niggard'
p2477
I202
sS'forgetful'
p2478
I2845
sS'tomb'
p2479
I723
sS'express'
p2480
I3000
sS'register,'
p2481
I2999
sS'impregnable'
p2482
I2110
sS'trees'
p2483
I536
sS'heaven:'
p2484
I1115
sS'offences'
p2485
I3035
sS'hid'
p2486
I1173
sS'breast'
p2487
I900
sS'compass'
p2488
I3201
sS'swart-complexioned'
p2489
I1117
sS"send'st"
p2490
I2012
sS'him'
p2491
I249
sS'stone,'
p2492
I1854
sS'grievances'
p2493
I1185
sS'birds,'
p2494
I2825
sS'pleasures'
p2495
I2813
sS'cry'
p2496
I2560
sS'impanelled'
p2497
I1645
sS'sum,'
p2498
I1707
sS'write,'
p2499
I880
sS'write!'
p2500
I2908
sS'desert,'
p2501
I1719
sS'wrongfully'
p2502
I2139
sS'bars'
p2503
I980
sS'set'
p2504
I1998
sS'art'
p2505
I51
sS'unwooed,'
p2506
I1841
sS'rare,'
p2507
I874
sS'distilled:'
p2508
I280
sS"o'ersways"
p2509
I2097
sS'see'
p2510
I522
sS'dumb'
p2511
I936
sS'are'
p2512
I199
sS'sea'
p2513
I1579
sS'presenteth'
p2514
I647
sS'bark'
p2515
I2448
sS'outward'
p2516
I712
sS'chose'
p2517
I2768
sS'find.'
p2518
I625
sS'find,'
p2519
I1762
sS'(a'
p2520
I1633
sS'spirits'
p2521
I2579
sS'forlorn'
p2522
I1271
sS'please'
p2523
I1110
sS'idle'
p2524
I2016
sS'viewest,'
p2525
I137
sS'drooping'
p2526
I1066
sS'balmy'
p2527
I2989
sS'unions'
p2528
I375
sS'gentlest'
p2529
I3117
sS'despair'
p2530
I3645
sS'woe'
p2531
I1188
sS'guilt'
p2532
I1382
sS'anew,'
p2533
I2493
sS'tibey'
p2534
I2739
sS'thrive'
p2535
I634
sS'wantonly,'
p2536
I1837
sS'knowing'
p2537
I2437
sS'days:'
p2538
I2896
sS'days;'
p2539
I102
sS'blushing'
p2540
I3441
sS'sold'
p2541
I3032
sS'sole'
p2542
I1374
sS'jaws,'
p2543
I794
sS'achieve,'
p2544
I2156
sS'days.'
p2545
I2497
sS'days,'
p2546
I2108
sS'blot'
p2547
I1114
sS"o'er-read,"
p2548
I2480
sS'bar,'
p2549
I1629
sS'mute,'
p2550
I2524
sS'both'
p2551
I1331
sS'mute.'
p2552
I2815
sS'desired'
p2553
I2647
sS'thou'
p2554
I26
sS'powers'
p2555
I3733
sS'old,'
p2556
I888
sS'anon'
p2557
I1263
sS'entertain'
p2558
I1461
sS'those.'
p2559
I1926
sS'spirit,'
p2560
I2578
sS'possesseth'
p2561
I2027
sS'approve'
p2562
I1531
sS'finds'
p2563
I2689
sS'untrimmed:'
p2564
I774
sS'flies'
p2565
I2227
sS'merchandized,'
p2566
I2885
sS'point'
p2567
I1785
sS'reasons'
p2568
I1715
sS'sweet'
p2569
I48
sS'live,'
p2570
I569
sS'race,'
p2571
I1777
sS'manners'
p2572
I1443
sS'despising,'
p2573
I1147
sS'alone'
p2574
I1123
sS'liker'
p2575
I701
sS'attainted:'
p2576
I2628
sS'live?'
p2577
I215
sS'live:'
p2578
I1417
sS'there,'
p2579
I250
sS'clay,'
p2580
I2267
sS'worthless'
p2581
I2459
sS'impute,'
p2582
I2521
sS"'scaped"
p2583
I2664
sS'knowing,'
p2584
I2610
sS'stamp'
p2585
I2495
sS'devouring'
p2586
I782
sS'acceptance'
p2587
I3567
sS'satire'
p2588
I2859
sS'due'
p2589
I1221
sS'miser'
p2590
I2327
sS'whom'
p2591
I503
sS'secret'
p2592
I651
sS'loves,'
p2593
I1463
sS'say)'
p2594
I1559
sS'wait'
p2595
I2814
sS'delights'
p2596
I363
sS'rosy'
p2597
I3197
sS'firm'
p2598
I2079
sS'lived'
p2599
I2178
sS'partly'
p2600
I3104
sS"'twixt"
p2601
I2326
sS'fire'
p2602
I1866
sS"fortune's"
p2603
I1396
sS'wet'
p2604
I400
sS'aye'
p2605
I3012
sS'else'
p2606
I368
sS'lives'
p2607
I489
sS'reason,'
p2608
I3825
sS'receive'
p2609
I3337
sS'struck'
p2610
I2582
sS'plants'
p2611
I656
sS'delight,'
p2612
I1390
sS'delight.'
p2613
I1377
sS'utmost'
p2614
I1706
sS'look'
p2615
I133
sS'straight'
p2616
I2642
sS'beauty,'
p2617
I491
sS'pace'
p2618
I1871
sS'while'
p2619
I1421
sS'rigour'
p2620
I3539
sS'delight:'
p2621
I2835
sS'kissing'
p2622
I1257
sS'eclipses'
p2623
I1329
sS'thence.'
p2624
I2595
sS'alike'
p2625
I2942
sS'sight?'
p2626
I2011
sS'where.'
p2627
I2550
sS'costly'
p2628
I3737
sS"best,'"
p2629
I3174
sS'odour'
p2630
I2827
sS'use,'
p2631
I116
sS'herein'
p2632
I488
sS'husband,'
p2633
I2715
sS'confound'
p2634
I2208
sS'flow)'
p2635
I1171
sS'unperfect'
p2636
I914
sS'where:'
p2637
I258
sS'limit'
p2638
I2491
sS'seest'
p2639
I2290
sS'fairer'
p2640
I468
sS'constancy,'
p2641
I3850
sS'sight:'
p2642
I3344
sS'away.'
p2643
I2091
sS'away,'
p2644
I1672
sS'twofold'
p2645
I1511
sS'grant'
p2646
I444
sS'lengths'
p2647
I1587
sS'bristly'
p2648
I549
sS'smother;'
p2649
I1663
sS'wherein'
p2650
I950
sS'discourse'
p2651
I3771
sS'away:'
p2652
I502
sS'thence,'
p2653
I2727
sS'ruth'
p2654
I3507
sS'miscalled'
p2655
I2150
sS'composition'
p2656
I1617
sS'votary'
p2657
I3886
sS'hopes'
p2658
I3263
sS'affairs'
p2659
I1924
sS'crushed'
p2660
I2047
sS'moving'
p2661
I2732
sS'purpose'
p2662
I858
sS'read:'
p2663
I2044
sS'darkening'
p2664
I2842
sS'early'
p2665
I1278
sS'task'
p2666
I2270
sS'bonds'
p2667
I2600
sS'older'
p2668
I3049
sS'cheek'
p2669
I1819
sS'loathsome'
p2670
I1334
sS"frown'st"
p2671
I3795
sS'leaves,'
p2672
I538
sS'profaned,'
p2673
I3416
sS'edge'
p2674
I1879
sS'starved'
p2675
I2337
sS'toil'
p2676
I1984
sS'spend'
p2677
I427
sS'shines,'
p2678
I765
sS'wing,'
p2679
I2403
sS'aggravate'
p2680
I3747
sS'burden'
p2681
I2803
sS'salve'
p2682
I1306
sS'shape'
p2683
I424
sS'awake,'
p2684
I2022
sS'graces,'
p2685
I731
sS'injuries'
p2686
I2633
sS'unto'
p2687
I1658
sS'(my'
p2688
I1724
sS'bosoms'
p2689
I3297
sS'cut'
p2690
I2063
sS'hated'
p2691
I3462
sS'tempteth'
p2692
I3721
sS'shape,'
p2693
I968
sS'hues'
p2694
I840
sS'dare'
p2695
I1912
sS'born'
p2696
I2407
sS'translate!'
p2697
I2789
sS'thee.'
p2698
I1109
sS"tongue's"
p2699
I3657
sS'thee,'
p2700
I293
sS'march'
p2701
I1246
sS'lacking'
p2702
I1198
sS'situation'
p2703
I3444
sS'big'
p2704
I2801
sS'bid'
p2705
I1919
sS'laughed'
p2706
I2821
sS'jealousy?'
p2707
I2019
sS'judgement'
p2708
I599
sS'tyranny,'
p2709
I3172
sS'quest'
p2710
I1646
sS'thee;'
p2711
I972
sS'thee:'
p2712
I301
sS'necessary'
p2713
I3010
sS'sharpened'
p2714
I1886
sS"garments'"
p2715
I2697
sS'hate,'
p2716
I453
sS'despised,'
p2717
I1413
sS'inviting'
p2718
I3371
sS'follows'
p2719
I1495
sS'hue,'
p2720
I2489
sS'strife'
p2721
I2325
sS'shapes'
p2722
I3124
sS'hate?'
p2723
I3812
sS'hate:'
p2724
I3225
sS'divining'
p2725
I2971
sS'foolish'
p2726
I3669
sS'hue?'
p2727
I2163
sS'kings,'
p2728
I3163
sS'records,'
p2729
I3355
sS'canst'
p2730
I214
sS'often'
p2731
I766
sS'plot,'
p2732
I3598
sS'wombs'
p2733
I2805
sS'last,'
p2734
I2674
sS'creation'
p2735
I2724
sS'some'
p2736
I149
sS'play'
p2737
I235
sS'maturity,'
p2738
I1990
sS'sighs'
p2739
I1661
sS'virtue,'
p2740
I2429
sS'added'
p2741
I2400
sS'incertainty,'
p2742
I3176
sS'admitted'
p2743
I3575
sS'sight'
p2744
I1076
sS'pale'
p2745
I1260
sS'near,'
p2746
I3573
sS'sauces'
p2747
I3237
sS'delivered'
p2748
I2387
sS'acquaintance'
p2749
I2389
sS'good:'
p2750
I3028
sS'though'
p2751
I721
sS'oblivion'
p2752
I3328
sS'(dressed'
p2753
I2817
sS'good?'
p2754
I3313
sS'forbear,'
p2755
I1506
sS'kind-hearted'
p2756
I475
sS'barrenly'
p2757
I509
sS'lark'
p2758
I1151
sS'recite,'
p2759
I2271
sS'good,'
p2760
I604
sS'be'
p2761
I88
sS'assailed.'
p2762
I1497
sS'patient'
p2763
I3068
sS'remembered'
p2764
I3290
sS'ornament,'
p2765
I55
sS'provide,'
p2766
I3056
sS"shadow's"
p2767
I1548
sS"'this"
p2768
I120
sS'foes,'
p2769
I3629
sS'burned,'
p2770
I2934
sS'aloft'
p2771
I2398
sS'might?'
p2772
I2838
sS'sire,'
p2773
I392
sS'might:'
p2774
I934
sS'by'
p2775
I18
sS'shine'
p2776
I1851
sS'faith'
p2777
I2131
sS'works'
p2778
I2409
sS'deserved'
p2779
I115
sS'age.'
p2780
I2987
sS'tend,'
p2781
I1907
sS'wrinkles'
p2782
I180
sS'least,'
p2783
I1144
sS'deserves'
p2784
I2422
sS'ambush'
p2785
I2238
sS'infection,'
p2786
I3072
sS'hatred'
p2787
I2717
sS'tend?'
p2788
I1810
sS'tenants'
p2789
I1648
sS'youthful'
p2790
I663
sS'repair'
p2791
I142
sS'thine?'
p2792
I3565
sS'render,'
p2793
I3407
sS'idly'
p2794
I2847
sS'hope,'
p2795
I1134
sS'into'
p2796
I1424
sS'within'
p2797
I61
sS'boy,'
p2798
I3002
sS'debateth'
p2799
I678
sS'services'
p2800
I1910
sS'because'
p2801
I1525
sS"intermixed'?"
p2802
I2876
sS'see.'
p2803
I1073
sS'remembrance'
p2804
I272
sS'review,'
p2805
I2312
sS"sharp'st"
p2806
I3165
sS'mountain,'
p2807
I3120
sS'nursed,'
p2808
I2386
sS'brought,'
p2809
I1571
sS'story'
p2810
I2625
sS'dun:'
p2811
I3480
sS'spending'
p2812
I2361
sS'crowned,'
p2813
I1992
sS'question'
p2814
I551
sS'oblation,'
p2815
I3403
sS'long'
p2816
I889
sS'misuse'
p2817
I3845
sS'whereto'
p2818
I3209
sS'slandering'
p2819
I3423
sS'suit'
p2820
I3518
sS'fade,'
p2821
I775
sS'gracious,'
p2822
I3566
sS'himself'
p2823
I1662
sS'jacks'
p2824
I3434
sS'frame,'
p2825
I1973
sS'graciously'
p2826
I1038
sS'healthful'
p2827
I3249
sS'frost'
p2828
I253
sS'vowing'
p2829
I3837
sS'assured'
p2830
I2703
sS'newer'
p2831
I3046
sS'gave,'
p2832
I1994
sS'line'
p2833
I2307
sS'acquainted,'
p2834
I2624
sS'dull'
p2835
I1566
sS'strive,'
p2836
I3086
sS'immured'
p2837
I2530
sS'fulfil.'
p2838
I3577
sS'wrecked)'
p2839
I2458
sS"lover's"
p2840
I2065
sS'sullied'
p2841
I680
sS'us'
p2842
I1449
sS'exchanged,'
p2843
I3021
sS'lords'
p2844
I2740
sS'discloses:'
p2845
I1839
sS'slander'
p2846
I2229
sS'subtleties.'
p2847
I3604
sS'proves'
p2848
I3390
sS'called'
p2849
I1708
sS'vassalage'
p2850
I1009
sS'side.'
p2851
I3830
sS'side,'
p2852
I1754
sS'enlarged,'
p2853
I2246
sS'constant'
p2854
I628
sS'prepare,'
p2855
I573
sS'influence'
p2856
I652
sS'lost.'
p2857
I3847
sS'lost,'
p2858
I3302
sS'rarities'
p2859
I2002
sS'single'
p2860
I404
sS'mightier'
p2861
I682
sS'qualify,'
p2862
I3014
sS'shown.'
p2863
I2210
sS"o'erworn,"
p2864
I2048
sS'require.'
p2865
I1911
sS'rainy'
p2866
I2669
sS'sullen'
p2867
I1154
sS'sunken'
p2868
I104
sS'special-blest,'
p2869
I1802
sS'thanks'
p2870
I1430
sS'depart,'
p2871
I306
sS'afford'
p2872
I2434
sS'ward,'
p2873
I3535
sS'themselves.'
p2874
I1843
sS'becomes'
p2875
I3509
sS'nay'
p2876
I2257
sS'excellent,'
p2877
I1426
sS'mock'
p2878
I2010
sS'define,'
p2879
I2035
sS'perusal'
p2880
I1432
sS'draw'
p2881
I814
sS'elements'
p2882
I1606
sS'clean'
p2883
I2336
sS'besiege'
p2884
I74
sS'charged,'
p2885
I2242
sS'breasts'
p2886
I3479
sS'astronomy,'
p2887
I603
sS'weigh'
p2888
I3288
sS'makeless'
p2889
I411
sS'wrinkle'
p2890
I2856
sS'desert'
p2891
I2124
sS'suffers'
p2892
I3364
sS'happier'
p2893
I296
sS"excuse'"
p2894
I129
sS"spend'st"
p2895
I2839
sS'vice'
p2896
I2232
sS'age'
p2897
I176
sS'wards'
p2898
I1684
sS'(doctor-like)'
p2899
I2147
sS'back,'
p2900
I2119
sS'came'
p2901
I3554
sS'broad'
p2902
I2451
sS'fresh'
p2903
I54
sS'marvel'
p2904
I3787
sS'having'
p2905
I216
sS'once'
p2906
I1000
sS'wilfulness'
p2907
I3216
sS'compile,'
p2908
I2406
sS'highmost'
p2909
I340
sS"deformed'st"
p2910
I3118
sS'decease:'
p2911
I2807
sS'alien'
p2912
I2393
sS'windy'
p2913
I2668
sS'go'
p2914
I621
sS'eyed,'
p2915
I2922
sS'ruminate'
p2916
I2090
sS'seemed'
p2917
I2809
sS'comfort,'
p2918
I1690
sS'graves'
p2919
I2374
sS'tincture'
p2920
I1834
sS'harvest'
p2921
I3437
sS'reckoned'
p2922
I3582
sS'young'
p2923
I2239
sS'send'
p2924
I1014
sS'note,'
p2925
I3652
sS'debarred'
p2926
I1092
sS'pleasing'
p2927
I396
sS'virtuous'
p2928
I698
sS'over-partial'
p2929
I3589
sS'tomb:'
p2930
I2879
sS'torture'
p2931
I1105
sS'wind,'
p2932
I619
sS"'now"
p2933
I3173
sS'confounding'
p2934
I2060
sS'more:'
p2935
I1468
sS'more;'
p2936
I514
sS'evident:'
p2937
I450
sS'tomb,'
p2938
I162
sS'scanted'
p2939
I3206
sS'accuse'
p2940
I3204
sS'more,'
p2941
I2527
sS'more.'
p2942
I3571
sS"fleet'st,"
p2943
I802
sS'false-speaking'
p2944
I3610
sS'grey'
p2945
I3510
sS'help,'
p2946
I1370
sS'try'
p2947
I3048
sS'verdict'
p2948
I1649
sS'convertest,'
p2949
I487
sS'betwixt'
p2950
I1655
sS'grave,'
p2951
I2476
sS'rack'
p2952
I1268
sS'proof'
p2953
I3218
sS'dignity:'
p2954
I2748
sS"alt'ring"
p2955
I3169
sS'other,'
p2956
I1536
sS'crow'
p2957
I2226
sS'desire?'
p2958
I1908
sS"work's"
p2959
I1057
sS'desire:'
p2960
I461
sS'jump'
p2961
I1578
sS'(yellowed'
p2962
I739
sS'issueless'
p2963
I407
sS'plead'
p2964
I940
sS'decrees'
p2965
I3162
sS'desire,'
p2966
I1600
sS'thence?'
p2967
I1759
sS'veins,'
p2968
I2172
sS'victor'
p2969
I2241
sS'that,'
p2970
I2708
sS'turn'
p2971
I3710
sS'make,'
p2972
I2465
sS'giving'
p2973
I2586
sS'decays?'
p2974
I2114
sS"o'er-green"
p2975
I3083
sS"man's"
p2976
I1140
sS'rotten'
p2977
I1300
sS'shade,'
p2978
I781
sS'sang.'
p2979
I2289
sS'sport)'
p2980
I2757
sS'body'
p2981
I949
sS'defy,'
p2982
I3353
sS'cheek:'
p2983
I2433
sS'decree,'
p2984
I2725
sS'mistake'
p2985
I3788
sS'(too'
p2986
I2653
sS'sins'
p2987
I1347
sS'enclose!'
p2988
I2754
sS'nimble'
p2989
I1577
sS'scythe'
p2990
I2005
sS'objects'
p2991
I3113
sS'let'
p2992
I274
sS'separation'
p2993
I1452
sS'others'
p2994
I561
sS'dissuade'
p2995
I3668
sS'sing'
p2996
I2849
sS'toil,'
p2997
I1045
sS'plea,'
p2998
I2099
sS'sap,'
p2999
I664
sS'remembered,'
p3000
I2319
sS'great'
p3001
I211
sS'hunted,'
p3002
I3461
sS'conceit'
p3003
I671
sS'metre'
p3004
I749
sS'leaving'
p3005
I307
sS'eternity.'
p3006
I2381
sS'makes'
p3007
I1085
sS'writes'
p3008
I2538
sS'composed'
p3009
I1971
sS'thralled'
p3010
I3369
sS'chaste'
p3011
I3883
sS'prayers'
p3012
I3003
sS'bereft,'
p3013
I268
sS'admired'
p3014
I2549
sS'forbid'
p3015
I809
sS'win'
p3016
I2081
sS"whoe'er"
p3017
I3537
sS'confined.'
p3018
I3051
sS'private'
p3019
I418
sS'posterity'
p3020
I1874
sS'wit'
p3021
I1022
sS'reproving,'
p3022
I3675
sS'unrest,'
p3023
I3770
sS'dearly,'
p3024
I1515
sS'scandal'
p3025
I3080
sS'deny,'
p3026
I1639
sS'cloud'
p3027
I1288
sS'desiring'
p3028
I1139
sS'use'
p3029
I210
sS'cheered'
p3030
I657
sS'from'
p3031
I0
sS'invocate,'
p3032
I1440
sS'hammered'
p3033
I3282
sS'unknown,'
p3034
I3194
sS'next'
p3035
I3527
sS'few'
p3036
I2282
sS'turned,'
p3037
I2930
sS'beguiled,'
p3038
I1958
sS'themselves'
p3039
I558
sS'hiding'
p3040
I1298
sS"sun's"
p3041
I987
sS'defendant'
p3042
I1638
sS'cheeks'
p3043
I3199
sS'possession'
p3044
I777
sS'boast.'
p3045
I2701
sS'boast,'
p3046
I977
sS'babe'
p3047
I911
sS'rich'
p3048
I675
sS'on'
p3049
I85
sS'name.'
p3050
I3006
sS'distillation'
p3051
I260
sS'name,'
p3052
I2355
sS'heir'
p3053
I23
sS"need'st"
p3054
I3622
sS'infection'
p3055
I2154
sS'thorns,'
p3056
I1325
sS'ordering;'
p3057
I391
sS'tattered'
p3058
I89
sS'name:'
p3059
I1386
sS'red,'
p3060
I3477
sS'cheek,'
p3061
I2161
sS'account'
p3062
I1190
sS'this'
p3063
I181
sS'linger'
p3064
I2671
sS'mended,'
p3065
I1974
sS'masonry,'
p3066
I1861
sS'praise'
p3067
I114
sS'remain,'
p3068
I1369
sS'drops'
p3069
I2988
sS'eternity,'
p3070
I3389
sS'vaunt'
p3071
I661
sS'control'
p3072
I1930
sS'dregs'
p3073
I2315
sS'unswept'
p3074
I1853
sS'bent'
p3075
I2658
sS'ushers'
p3076
I3512
sS'process'
p3077
I2931
sS'counterfeit:'
p3078
I703
sS'chief,'
p3079
I1517
sS'high'
p3080
I719
sS'salving'
p3081
I1344
sS'his'
p3082
I21
sS'something'
p3083
I2570
sS'bones'
p3084
I1225
sS'none.'
p3085
I3583
sS'purposed'
p3086
I2672
sS'none,'
p3087
I2281
sS'counterfeit,'
p3088
I1814
sS'building,'
p3089
I2462
sS'lamb'
p3090
I2788
sS'comes'
p3091
I2615
sS'counting'
p3092
I2333
sS'forsworn'
p3093
I3832
sS'falls'
p3094
I3367
sS'lame'
p3095
I1395
sS'rents.'
p3096
I3683
sS"sickle's"
p3097
I3200
sS'holds'
p3098
I641
sS'advocate,'
p3099
I1355
sS'affords.'
p3100
I2956
sS'moods'
p3101
I2721
sS'affords,'
p3102
I2564
sS'line,'
p3103
I2258
sS'beams'
p3104
I3138
sS'mightst'
p3105
I1504
sS'sin'
p3106
I2026
sS'watery'
p3107
I2082
sS'alive,'
p3108
I3087
sS'watch'
p3109
I1916
sS'amends,'
p3110
I2864
sS'canker'
p3111
I1335
sS'lines,'
p3112
I2912
sS'abuse'
p3113
I1528
sS'remedy,'
p3114
I2030
sS'unfathered,'
p3115
I3358
sS"worth's"
p3116
I3193
sS'moving,'
p3117
I1036
sS'physic'
p3118
I1312
sS'bankrupt'
p3119
I2168
sS'folly,'
p3120
I493
sS'gone)'
p3121
I2473
sS'gone,'
p3122
I221
sS'light'
p3123
I312
sS'intents,'
p3124
I3166
sS'lines'
p3125
I704
sS'or'
p3126
I158
sS'light,'
p3127
I1553
sS'chief'
p3128
I460
sS'over-plus,'
p3129
I3562
sS'writ'
p3130
I2260
sS'tenure'
p3131
I2018
sS'despair,'
p3132
I3713
sS'favourites'
p3133
I984
sS'committed,'
p3134
I3266
sS'counted'
p3135
I3408
sS'neglect'
p3136
I2865
sS'beauties'
p3137
I557
sS'stamped'
p3138
I3081
sS'transfix'
p3139
I1996
sS'hand,'
p3140
I1720
sS'weeks,'
p3141
I3202
sS'sightless'
p3142
I1079
sS"o'erlook"
p3143
I2483
sS'whilst'
p3144
I978
sS'beguile'
p3145
I146
sS'dearest'
p3146
I1397
sS'making.'
p3147
I2616
sS'looks'
p3148
I323
sS'tyrant'
p3149
I685
sS'dial'
p3150
I2365
sS'growing,'
p3151
I2614
sS'thyself'
p3152
I904
sS'hand:'
p3153
I3064
sS'perfect'
p3154
I927
sS'frailties'
p3155
I3024
sS'whereon'
p3156
I650
sS'unstained'
p3157
I2235
sS'decay'
p3158
I679
sS'lo'
p3159
I309
sS'whereof'
p3160
I1807
sS'banquet'
p3161
I1666
sS'willing'
p3162
I288
sS'sweetness,'
p3163
I3236
sS'gazeth,'
p3164
I837
sS'distraction'
p3165
I3270
sS'world,'
p3166
I147
sS'tickled'
p3167
I3443
sS'greater'
p3168
I1481
sS'look,'
p3169
I1660
sS'runs'
p3170
I3691
sS'offence,'
p3171
I1756
sS'clears.'
p3172
I3790
sS'sweets'
p3173
I359
sS'ever-fixed'
p3174
I3188
sS'hands'
p3175
I1104
sS'front'
p3176
I2892
sS'kindness'
p3177
I1383
sS'affections'
p3178
I3036
sS'day'
p3179
I524
sS'forgotten.'
p3180
I2469
sS'tired,'
p3181
I1052
sS'ornaments,'
p3182
I3678
sS'profound'
p3183
I3092
sS'eased'
p3184
I1097
sS'feast'
p3185
I3665
sS'by.'
p3186
I2303
sS'trimmed'
p3187
I2128
sS'by,'
p3188
I3885
sS'truth'
p3189
I632
sS'urge,'
p3190
I3227
sS'gazing'
p3191
I3401
sS'legions'
p3192
I3887
sS'beshrew'
p3193
I3519
sS'have,'
p3194
I2471
sS'most;'
p3195
I982
sS'pitying'
p3196
I3505
sS'(the'
p3197
I2197
sS'doing'
p3198
I2635
sS"princes'"
p3199
I983
sS'ills'
p3200
I3246
sS'alteration'
p3201
I3183
sS'most,'
p3202
I2526
sS'exceeded'
p3203
I1235
sS'our'
p3204
I1364
sS'state.'
p3205
I3815
sS'catch:'
p3206
I3115
sS'tenth'
p3207
I1437
sS'blesses'
p3208
I2761
sS'beweep'
p3209
I1124
sS'out'
p3210
I669
sS'wary,'
p3211
I905
sS'death-bed,'
p3212
I2299
sS'time?'
p3213
I686
sS'assured,'
p3214
I1621
sS'plods'
p3215
I1735
sS'confess'
p3216
I1360
sS'eyelids'
p3217
I1067
sS'niggarding:'
p3218
I69
sS'time,'
p3219
I521
sS'time.'
p3220
I183
sS'shaken;'
p3221
I3190
sS'frowns'
p3222
I2722
sS'admire,'
p3223
I3347
sS'cure:'
p3224
I3867
sS'cause'
p3225
I2605
sS'red'
p3226
I3487
sS'common'
p3227
I2475
sS'fly,'
p3228
I2399
sS'music,'
p3229
I3424
sS'ill:'
p3230
I2683
sS'frank'
p3231
I196
sS'salve,'
p3232
I3295
sS'decay,'
p3233
I495
sS'decay.'
p3234
I2269
sS'darkly'
p3235
I1544
sS'embassy'
p3236
I1608
sS'ill.'
p3237
I913
sS'ill,'
p3238
I2646
sS'tresses'
p3239
I2185
sS'shun'
p3240
I3232
sS'hasten'
p3241
I1981
sS'compiled,'
p3242
I2553
sS'rearward'
p3243
I2666
sS'could'
p3244
I302
sS'behaviour,'
p3245
I2432
sS'keep'
p3246
I908
sS'counterpart'
p3247
I2546
sS'keen'
p3248
I790
sS'one:'
p3249
I1367
sS'cures'
p3250
I1310
sS'mortal'
p3251
I335
sS'hence'
p3252
I2467
sS'ears'
p3253
I3650
sS'mad,'
p3254
I3646
sS'respect,'
p3255
I1044
sS'rudely'
p3256
I2136
sS'spite,'
p3257
I1372
sS'new-appearing'
p3258
I320
sS'pitied'
p3259
I3689
sS'possessing'
p3260
I2338
sS'powerful'
p3261
I1850
sS'loveliness'
p3262
I185
sS'feasts'
p3263
I1788
sS"learned's"
p3264
I2402
sS'list,'
p3265
I1946
sS'stelled,'
p3266
I947
sS'hear,'
p3267
I356
sS'dearest,'
p3268
I1692
sS"wond'ring"
p3269
I3354
sS"run'st"
p3270
I3707
sS'uneared'
p3271
I153
sS'interest,'
p3272
I2308
sS'two,'
p3273
I1593
sS'wills,'
p3274
I3580
sS'be.'
p3275
I1583
sS'new,'
p3276
I1900
sS'be,'
p3277
I1923
sS'bears'
p3278
I1320
sS'love,'
p3279
I941
sS'vulgar'
p3280
I1427
sS'seat'
p3281
I1505
sS'sorrow,'
p3282
I2665
sS'be:'
p3283
I2700
sS'their'
p3284
I662
sS'gay?'
p3285
I3738
sS'be?'
p3286
I3525
sS'behind,'
p3287
I417
sS'prouder'
p3288
I2696
sS'love?'
p3289
I470
sS'fairest'
p3290
I1
sS'painful'
p3291
I994
sS'low'
p3292
I352
sS'forfeit,'
p3293
I3543
sS'never-resting'
p3294
I243
sS'renewed,'
p3295
I3067
sS'feast,'
p3296
I1665
sS'proclaims'
p3297
I2984
sS'soundless'
p3298
I2457
sS'steel'
p3299
I2113
sS'bear:'
p3300
I384
sS'unlooked'
p3301
I981
sS'aught'
p3302
I1431
sS'deemed.'
p3303
I2783
sS"o'er"
p3304
I533
sS'swerving.'
p3305
I2608
sS'riches'
p3306
I2603
sS'richer'
p3307
I2695
sS'upon,'
p3308
I3797
sS'female'
p3309
I3719
sS'took,'
p3310
I1657
sS"body's"
p3311
I1056
sS'bear.'
p3312
I585
sS'loves'
p3313
I1366
sS'bear,'
p3314
I2370
sS'bare'
p3315
I2202
sS'sweet,'
p3316
I2745
sS'roses,'
p3317
I1835
sS'sooner'
p3318
I3459
sS'descriptions'
p3319
I2959
sS'lame,'
p3320
I1411
sS'accusing'
p3321
I1945
sS'enforced'
p3322
I2492
sS'beggared'
p3323
I2169
sS'false'
p3324
I829
sS"forget'st"
p3325
I2836
sS'beggar'
p3326
I2125
sS'you.'
p3327
I2279
sS'labouring'
p3328
I1959
sS'foes'
p3329
I2203
sS'gently'
p3330
I3429
sS'repay,'
p3331
I3208
sS'refigured'
p3332
I300
sS'gentle'
p3333
I227
sS'buy'
p3334
I3749
sS'torment'
p3335
I1457
sS'have'
p3336
I602
sS're-survey'
p3337
I1227
sS'need'
p3338
I2705
sS'sadly?'
p3339
I358
sS'grows,'
p3340
I3687
sS'fuel,'
p3341
I39
sS'savage,'
p3342
I3455
sS'sings'
p3343
I1156
sS'bastard'
p3344
I2180
sS'tyrannous,'
p3345
I3493
sS'able'
p3346
I2563
sS'(no'
p3347
I1774
sS'adjunct'
p3348
I2688
sS'which'
p3349
I240
sS'spread,'
p3350
I985
sS'divert'
p3351
I3167
sS'swearing,'
p3352
I3833
sS'abhor'
p3353
I3814
sS'loving,'
p3354
I1042
sS'excess'
p3355
I3742
sS'unless'
p3356
I1384
sS'centre'
p3357
I3731
sS'senses'
p3358
I3667
sS'who'
p3359
I159
sS'privilage'
p3360
I1949
sS'heat,'
p3361
I3379
sS"time's"
p3362
I891
sS'harmful'
p3363
I3055
sS'memory,'
p3364
I2375
sS'lust'
p3365
I3450
sS'groan,'
p3366
I1751
sS'but'
p3367
I13
sS'writ,'
p3368
I2543
sS'prisoner'
p3369
I263
sS'cupid'
p3370
I3853
sS'why'
p3371
I186
sS"husband's"
p3372
I423
sS'afresh'
p3373
I1176
sS'deny'
p3374
I439
sS'accumulate,'
p3375
I3220
sS'sing:'
p3376
I398
sS'exceed,'
p3377
I2510
sS'stronger'
p3378
I2101
sS'(from'
p3379
I1060
sS"widow's"
p3380
I401
sS'pipe'
p3381
I2894
sS'ranged,'
p3382
I3018
sS'steepy'
p3383
I2054
sS'wounded'
p3384
I3296
sS'painting'
p3385
I2159
sS'outlive'
p3386
I1441
sS'sing,'
p3387
I1444
sS'impression'
p3388
I3078
sS'slandered'
p3389
I3411
sS'lease,'
p3390
I3739
sS'annoy?'
p3391
I370
sS'wilful'
p3392
I1474
sS'couldst'
p3393
I118
sS'slow:'
p3394
I2735
sS'white,'
p3395
I2832
sS'one,'
p3396
I297
sS'poesy'
p3397
I2395
sS'slow?'
p3398
I1764
sS'bring'
p3399
I1351
sS"many's"
p3400
I2718
sS'luck,'
p3401
I606
sS'large'
p3402
I1586
sS'rough'
p3403
I755
sS'obsequious'
p3404
I1206
sS'brow'
p3405
I2050
sS'pleased'
p3406
I3654
sS'spurring'
p3407
I1753
sS'true,'
p3408
I2033
sS'envy'
p3409
I3433
sS'knowledge'
p3410
I626
sS'posting'
p3411
I1760
sS'philomel'
p3412
I2891
sS'land,'
p3413
I1580
sS'inhearse,'
p3414
I2576
sS'woo'
p3415
I3685
sS'many,'
p3416
I447
sS'should'
p3417
I17
sS'true?'
p3418
I2167
sS'bases'
p3419
I3388
sS'preposterously'
p3420
I3026
sS'deceive.'
p3421
I1462
sS'deceive,'
p3422
I219
sS'tune'
p3423
I3658
sS'marriage'
p3424
I3179
sS'inhabit'
p3425
I2183
sS'they,'
p3426
I1975
sS'hope'
p3427
I1027
sS'finger'
p3428
I2776
sS'doubting'
p3429
I2331
sS'please:'
p3430
I3762
sS'undivided'
p3431
I1365
sS'weeds,'
p3432
I3360
sS'familiar'
p3433
I2589
sS'bear'
p3434
I24
sS'forsworn,'
p3435
I2133
sS'pass,'
p3436
I1712
sS'perfection'
p3437
I642
sS'words'
p3438
I1026
sS'chance,'
p3439
I771
sS'forsworn:'
p3440
I2622
sS'leases'
p3441
I3375
sS'spur'
p3442
I1744
sS"offence's"
p3443
I1321
sS'endless'
p3444
I2986
sS'face?'
p3445
I3600
sS'had,'
p3446
I2341
sS'brain'
p3447
I2575
sS'gust'
p3448
I3145
sS'married'
p3449
I376
sS'summon'
p3450
I1161
sS'control,'
p3451
I2975
sS'she'
p3452
I152
sS'fixed'
p3453
I884
sS'widow'
p3454
I413
sS'strengthened'
p3455
I2882
sS'sluttish'
p3456
I1856
sS'straight,'
p3457
I3460
sS'outbraves'
p3458
I2747
sS'farthest'
p3459
I1576
sS'mow.'
p3460
I2006
sS'dearer,'
p3461
I3150
sS'crossed:'
p3462
I3533
sS'frame'
p3463
I230
sS'shake'
p3464
I757
sS'stout,'
p3465
I2111
sS'end?'
p3466
I3745
sS'this,'
p3467
I1339
sS'cruel;'
p3468
I3495
sS'merits'
p3469
I3674
sS'changes'
p3470
I3090
sS'desperate'
p3471
I3766
sS'violet'
p3472
I528
sS'end)'
p3473
I1726
sS'having,'
p3474
I3469
sS'end,'
p3475
I432
sS'creating'
p3476
I3136
sS"eyes'"
p3477
I3592
sS'ground.'
p3478
I3492
sS'closet'
p3479
I1634
sS'mind:'
p3480
I425
sS'pattern'
p3481
I819
sS'legacy?'
p3482
I189
sS'unseeing'
p3483
I1554
sS'worship'
p3484
I3802
sS'fits!'
p3485
I3298
sS'mind,'
p3486
I466
sS'written'
p3487
I1015
sS'mind.'
p3488
I2390
sS'tables,'
p3489
I3320
sS'ground:'
p3490
I3863
sS'ground;'
p3491
I2323
sS'boughs'
p3492
I2283
sS'progress'
p3493
I2380
sS'neither'
p3494
I710
sS'besmeared'
p3495
I1855
sS'determinate.'
p3496
I2601
sS'(though'
p3497
I1099
sS'wiry'
p3498
I3431
sS'asked,'
p3499
I97
sS'glory,'
p3500
I2537
sS'sweet;'
p3501
I3396
sS'dateless'
p3502
I1174
sS'dressings'
p3503
I3343
sS'joy'
p3504
I362
sS'sorrow'
p3505
I1317
sS'depends:'
p3506
I2867
sS'aside,'
p3507
I3621
sS'glory:'
p3508
I2629
sS'spoil'
p3509
I2120
sS'merit?'
p3510
I3001
sS'precious'
p3511
I1172
sS'weary'
p3512
I342
sS'swift'
p3513
I1602
sS'taken,'
p3514
I3526
sS'injury.'
p3515
I1486
sS'taken.'
p3516
I3195
sS'joy:'
p3517
I364
sS'renewest,'
p3518
I144
sS'figured'
p3519
I2998
sS'instant'
p3520
I1801
sS'limits'
p3521
I1572
sS'bough,'
p3522
I2902
sS'faces,'
p3523
I2742
sS'purge.'
p3524
I3234
sS'acknowledge'
p3525
I1379
sS'surmise,'
p3526
I3219
sS'equal'
p3527
I2532
sS'minds'
p3528
I3168
sS'april'
p3529
I171
sS'admit'
p3530
I3180
sS'streams'
p3531
I1261
sS"store's"
p3532
I3585
sS'conquered'
p3533
I2667
sS'canopy'
p3534
I541
sS'kinds'
p3535
I3025
sS'glorious'
p3536
I1251
sS'wear'
p3537
I667
sS'comment'
p3538
I2640
sS'jade,'
p3539
I1778
sS'statues'
p3540
I1857
sS'unfolding'
p3541
I1803
sS'mend,'
p3542
I2916
sS'walk'
p3543
I3447
sS"wretch's"
p3544
I2318
sS'table'
p3545
I948
sS'done.'
p3546
I1970
sS'sense,'
p3547
I1352
sS'vermilion'
p3548
I2833
sS'addition'
p3549
I854
sS'wills'
p3550
I3312
sS'deaths'
p3551
I3641
sS'wrong.'
p3552
I3091
sS'excellence,'
p3553
I2949
sS'astonished.'
p3554
I2587
sS"whate'er"
p3555
I803
sS'certain'
p3556
I3175
sS'poet'
p3557
I732
sS'waste'
p3558
I67
sS'strumpeted,'
p3559
I2137
sS'describe'
p3560
I1812
sS'inheritors'
p3561
I3741
sS'proudest'
p3562
I2445
sS'league'
p3563
I1656
sS'painted'
p3564
I702
sS'souls)'
p3565
I2199
sS'endured,'
p3566
I2979
sS"hear'st"
p3567
I357
sS'lets'
p3568
I586
sS'general'
p3569
I2693
sS'painter'
p3570
I946
sS'wood'
p3571
I3426
sS'view.'
p3572
I1905
sS'sourly'
p3573
I1500
sS'surety-like'
p3574
I3547
sS'wilt'
p3575
I804
sS'plain'
p3576
I2502
sS'forsaken,'
p3577
I3530
sS'attend,'
p3578
I1591
sS'appearance'
p3579
I1641
sS'as'
p3580
I14
sS'three-fold'
p3581
I3532
sS'will'
p3582
I87
sS'riper'
p3583
I16
sS'words,'
p3584
I2503
sS'will,'
p3585
I906
sS"hate's"
p3586
I1484
sS'(sweet'
p3587
I2420
sS'ripe'
p3588
I2574
sS'physicians'
p3589
I3644
sS'almost'
p3590
I1146
sS'dumb,'
p3591
I2522
sS'up-locked'
p3592
I1780
sS'receivest,'
p3593
I1469
sS'lascivious'
p3594
I2756
sS'shame,'
p3595
I108
sS'kind.'
p3596
I3712
sS'novel,'
p3597
I3341
sS'lambs'
p3598
I2784
sS'new-fangled'
p3599
I2682
sS'all-eating'
p3600
I107
sS'set,'
p3601
I1790
sS'of,'
p3602
I2427
sS'largess'
p3603
I205
sS'adverse'
p3604
I1353
sS'parts'
p3605
I383
sS'kind)'
p3606
I2216
sS'freezings'
p3607
I2794
sS'party'
p3608
I1354
sS'well-contented'
p3609
I1224
sS'blooms'
p3610
I1831
sS'sit,'
p3611
I1408
sS'flesh'
p3612
I1567
sS'shames'
p3613
I2015
sS'lasting'
p3614
I3322
sS'drink'
p3615
I3126
sS'upon'
p3616
I188
sS'effect'
p3617
I267
sS'outcast'
p3618
I1125
sS'beast'
p3619
I1733
sS"december's"
p3620
I2797
sS'dust'
p3621
I1226
sS'judgment'
p3622
I3151
sS'betray'
p3623
I3820
sS'steals'
p3624
I842
sS'audit'
p3625
I224
sS'scarcely'
p3626
I1713
sS'those,'
p3627
I3684
sS'off'
p3628
I1108
sS'i'
p3629
I465
sS'seeing.'
p3630
I3305
sS'colour'
p3631
I2871
sS'part,'
p3632
I919
sS'part.'
p3633
I1654
sS'(although'
p3634
I2215
sS'thought'
p3635
I1029
sS"judgment's"
p3636
I3504
sS'seeing,'
p3637
I3106
sS'oft'
p3638
I622
sS'sets'
p3639
I674
sS'part;'
p3640
I2029
sS'arising'
p3641
I1153
sS'twire'
p3642
I1119
sS'lest'
p3643
I1380
sS'jollity,'
p3644
I2129
sS'pursuit'
p3645
I3468
sS'dyed?'
p3646
I2866
sS'kiss'
p3647
I3436
sS'simplicity,'
p3648
I2151
sS'heavily'
p3649
I1187
sS"o'erpressed"
p3650
I3624
sS'seconds,'
p3651
I3406
sS'increase,'
p3652
I5
sS'gulls'
p3653
I2592
sS'love-god'
p3654
I3878
sS'cries'
p3655
I3699
sS'interim'
p3656
I1897
sS'skill'
p3657
I2852
sS'thither'
p3658
I3874
sS'dost'
p3659
I145
sS'liberty,'
p3660
I1939
sS'lend,'
p3661
I195
sS'now'
p3662
I52
sS'delighted,'
p3663
I3659
sS'bell'
p3664
I2250
sS'fled'
p3665
I2252
sS'simple'
p3666
I2149
sS'add'
p3667
I2218
sS'other'
p3668
I575
sS"'will',"
p3669
I3574
sS'lend:'
p3670
I1811
sS'defeated,'
p3671
I856
sS"infant's"
p3672
I3705
sS'bevel;'
p3673
I3317
sS'raven'
p3674
I3418
sS'suppressed:'
p3675
I3612
sS'wooed'
p3676
I2231
sS'loss,'
p3677
I1315
sS'testy'
p3678
I3640
sS'room,'
p3679
I1873
sS"who's"
p3680
I1433
sS'store;'
p3681
I3748
sS'store:'
p3682
I1410
sS'cloak,'
p3683
I1294
sS'five'
p3684
I1964
sS'moment.'
p3685
I644
sS'unseen'
p3686
I1275
sS'press'
p3687
I3634
sS'store.'
p3688
I2085
sS'store,'
p3689
I505
sS'filed.'
p3690
I2557
sS'(of'
p3691
I1770
sS'loss'
p3692
I1518
sS'showing'
p3693
I2356
sS'like'
p3694
I344
sS'lost'
p3695
I2314
sS'perpetual'
p3696
I1895
sS'insufficiency'
p3697
I3805
sS'rich-proud'
p3698
I2069
sS'impart:'
p3699
I2277
sS'feeling,'
p3700
I3304
sS'(or'
p3701
I2508
sS'lose'
p3702
I776
sS'nerves'
p3703
I3281
sS'blamed,'
p3704
I1472
sS'record'
p3705
I1868
sS'lends'
p3706
I197
sS'therein'
p3707
I971
sS'sway,'
p3708
I3806
sS'worth,'
p3709
I2518
sS'inconstant'
p3710
I672
sS'workings'
p3711
I2726
sS'reigned,'
p3712
I3023
sS'wights,'
p3713
I2960
sS'sufficed,'
p3714
I1415
sS'thief'
p3715
I1479
sS'immortal'
p3716
I2470
sS'hush'
p3717
I2899
sS'knows,'
p3718
I3627
sS'growth'
p3719
I2895
sS'loan;'
p3720
I289
sS'past,'
p3721
I1162
sS'home'
p3722
I2013
sS'recompense,'
p3723
I942
sS'his,'
p3724
I2174
sS'transport'
p3725
I3215
sS'before,'
p3726
I1956
sS'before.'
p3727
I1194
sS"heaven's"
p3728
I875
sS'lead'
p3729
I1508
sS'flesh)'
p3730
I1775
sS'lameness,'
p3731
I2641
sS'lean'
p3732
I2534
sS'sake,'
p3733
I3556
sS'sake.'
p3734
I2025
sS'leap'
p3735
I1585
sS'before?'
p3736
I1466
sS'masked'
p3737
I1289
sS"o'ertake"
p3738
I1296
sS'quill,'
p3739
I2554
sS'wrongs,'
p3740
I2706
sS'mud,'
p3741
I1328
sS'vows,'
p3742
I3161
sS'thinly'
p3743
I1792
sS'proof,'
p3744
I3047
sS'slight'
p3745
I1594
sS"death's"
p3746
I595
sS"ow'st,"
p3747
I778
sS'bond'
p3748
I3548
sS'petty'
p3749
I2675
sS'confined,'
p3750
I2951
sS'although'
p3751
I1363
sS'worthy'
p3752
I1043
sS'instinct'
p3753
I1739
sS'imaginary'
p3754
I1075
sS'felt,'
p3755
I2795
sS'worths'
p3756
I2036
sS'fresh,'
p3757
I2990
sS'stage'
p3758
I646
sS'perpetual,'
p3759
I3894
sS'gathered.'
p3760
I3361
sS'hied'
p3761
I3875
sS"murd'rous"
p3762
I452
sS'proceed?'
p3763
I2357
sS'freedom'
p3764
I1630
sS'blush'
p3765
I2170
sS'mine,'
p3766
I1286
sS'swear'
p3767
I3500
sS'gainer'
p3768
I2630
sS'(love)'
p3769
I2645
sS'hairs'
p3770
I3481
sS'tongue'
p3771
I943
sS'pleasure,'
p3772
I1931
sS'farewell!'
p3773
I2596
sS'outstripped'
p3774
I1232
sS'reckoning'
p3775
I3157
sS'own'
p3776
I30
sS'polished'
p3777
I2565
sS'attaint'
p3778
I2482
sS'fulness,'
p3779
I1891
sS'guard'
p3780
I1722
sS'promise'
p3781
I1292
sS'treads'
p3782
I3491
sS"ne'er-cloying"
p3783
I3235
sS'lawful'
p3784
I1356
sS'quickly'
p3785
I3860
sS'thence'
p3786
I3058
sS'best.'
p3787
I2694
sS'victors'
p3788
I2594
sS'got,'
p3789
I2766
sS'mad.'
p3790
I3466
sS'veil'
p3791
I2769
sS'place?'
p3792
I3599
sS'trenches'
p3793
I78
sS'watchman'
p3794
I2024
sS'score,'
p3795
I3333
sS"wood's"
p3796
I3439
sS'rotten,'
p3797
I2466
sS'place,'
p3798
I282
sS'place.'
p3799
I2419
sS'prophetic'
p3800
I2973
sS'hoisted'
p3801
I3214
sS'brand'
p3802
I3854
sS'fountains'
p3803
I1327
sS'prophecies'
p3804
I2968
sS'plague'
p3805
I3128
sS'gain'
p3806
I2076
sS'delivers'
p3807
I3109
sS'ear'
p3808
I2850
sS'eat'
p3809
I3743
sS'bud'
p3810
I62
sS'he'
p3811
I160
sS'count'
p3812
I518
sS'made'
p3813
I504
sS'wise'
p3814
I3633
sS'princes'
p3815
I620
sS'glory'
p3816
I992
sS'whether'
p3817
I1401
sS'wish'
p3818
I699
sS'grieve'
p3819
I1184
sS'eyes:'
p3820
I963
sS'triumphant'
p3821
I1281
sS'uprear,'
p3822
I1721
sS'placed'
p3823
I1793
sS'cruel'
p3824
I2061
sS'converted'
p3825
I351
sS'weep,'
p3826
I415
sS'monument'
p3827
I2478
sS'eyes,'
p3828
I32
sS'minutes'
p3829
I614
sS'love-kindling'
p3830
I3859
sS'eyes)'
p3831
I1637
sS'bearing'
p3832
I907
sS'friend,'
p3833
I3050
sS'rightly'
p3834
I2736
sS'heretic,'
p3835
I3374
sS'mortgaged'
p3836
I3542
sS'devise'
p3837
I2275
sS'(unused'
p3838
I1170
sS'measure'
p3839
I2212
sS'dearth'
p3840
I3736
sS'nearly.'
p3841
I1519
sS'contend.'
p3842
I1986
sS'goodness'
p3843
I3250
sS'(inferior'
p3844
I2449
sS'fleeting'
p3845
I2792
sS'kind,'
p3846
I472
sS'naming'
p3847
I2760
sS'endeared'
p3848
I1196
sS'trim)'
p3849
I2818
sS'mutual'
p3850
I390
sS'accident,'
p3851
I3363
sS'wide,'
p3852
I1069
sS'didst'
p3853
I1291
sS'steel.'
p3854
I3283
sS'forests'
p3855
I2926
sS'slumbers'
p3856
I2008
sS'book'
p3857
I1002
sS'witness'
p3858
I1017
sS'sick'
p3859
I2418
sS'unlettered'
p3860
I2558
sS'behold'
p3861
I527
sS"dial's"
p3862
I2376
sS'trophies'
p3863
I1218
sS'thrivers'
p3864
I3400
sS'yours,'
p3865
I567
sS'semblance'
p3866
I574
sS'star'
p3867
I1034
sS'again,'
p3868
I1892
sS'oppression'
p3869
I1096
sS'become'
p3870
I3515
sS'reeks.'
p3871
I3489
sS'variation'
p3872
I2344
sS'stay'
p3873
I1681
sS'in,'
p3874
I3062
sS'methinks'
p3875
I601
sS'orphans,'
p3876
I2810
sS'earthly'
p3877
I736
sS'redeem,'
p3878
I2846
sS'death,'
p3879
I1612
sS'friends'
p3880
I1137
sS'tan'
p3881
I3164
sS'ghost'
p3882
I2590
sS'stirred'
p3883
I861
sS'declines,'
p3884
I770
sS'ranks'
p3885
I1247
sS"he's"
p3886
I2055
sS'conspire,'
p3887
I456
sS'compare,'
p3888
I1342
sS'jewel'
p3889
I1081
sS'pictured'
p3890
I958
sS'pupil'
p3891
I708
sS"(time's"
p3892
I706
sS"sway'st"
p3893
I3430
sS'vassal'
p3894
I1933
sS'goodly'
p3895
I2463
sS'accidents'
p3896
I3159
sS'gardens'
p3897
I696
s.