(dp0
S'all'
p1
I163
sS'suns'
p2
I317
sS'lack'
p3
I763
sS'tombs'
p4
I770
sS'worms'
p5
I73
sS'son.'
p6
I87
sS'leads'
p7
I867
sS'hath'
p8
I237
sS"'gainst"
p9
I130
sS'behind.'
p10
I443
sS'it.'
p11
I743
sS'faster'
p12
I720
sS'hate'
p13
I944
sS'(all'
p14
I301
sS'seemed'
p15
I715
sS'whose'
p16
I88
sS'grace,'
p17
I367
sS'hold'
p18
I737
sS'praises'
p19
I639
sS'sweetest'
p20
I690
sS'send'
p21
I400
sS"keep'st"
p22
I941
sS'to'
p23
I8
sS'informer,'
p24
I850
sS'skill.'
p25
I179
sS'must'
p26
I44
sS'poisoned,'
p27
I801
sS'worth'
p28
I583
sS'blind,'
p29
I942
sS'forth,'
p30
I576
sS'cause.'
p31
I435
sS'worse'
p32
I499
sS'song'
p33
I90
sS'far'
p34
I513
sS'conscience'
p35
I950
sS'heart)'
p36
I700
sS"women's"
p37
I211
sS'seal,'
p38
I120
sS'rebuked'
p39
I825
sS'worst'
p40
I199
sS'foul'
p41
I877
sS'more,'
p42
I125
sS'fingers,'
p43
I862
sS'heaven'
p44
I784
sS'prize'
p45
I426
sS'best,'
p46
I344
sS'did'
p47
I717
sS'die'
p48
I36
sS'leave'
p49
I428
sS'these'
p50
I353
sS'praise.'
p51
I357
sS'praise,'
p52
I519
sS"i'll"
p53
I310
sS'brave'
p54
I137
sS'subjects'
p55
I498
sS'ten'
p56
I348
sS'might,'
p57
I536
sS'me,'
p58
I115
sS'me.'
p59
I266
sS'out-going'
p60
I78
sS'wished,'
p61
I479
sS'monument,'
p62
I767
sS'sin,'
p63
I803
sS'go'
p64
I910
sS'laws,'
p65
I431
sS'gain,'
p66
I914
sS'crests'
p67
I769
sS'even'
p68
I419
sS'make.'
p69
I679
sS'what'
p70
I235
sS'defence'
p71
I134
sS'stands'
p72
I853
sS"ne'er"
p73
I667
sS'sun'
p74
I321
sS'seen,'
p75
I525
sS'near'
p76
I902
sS'poison'
p77
I820
sS'him,'
p78
I138
sS'report.'
p79
I342
sS'suspect'
p80
I561
sS'matcheth'
p81
I557
sS'new'
p82
I18
sS'appeal'
p83
I813
sS'ever'
p84
I206
sS'filled'
p85
I649
sS'remain.'
p86
I365
sS'elsewhere,'
p87
I512
sS'full'
p88
I473
sS'men'
p89
I190
sS'here'
p90
I362
sS'water'
p91
I967
sS'scythe'
p92
I132
sS'enfeebled'
p93
I653
sS'let'
p94
I126
sS'decay.'
p95
I613
sS'others'
p96
I103
sS'hast'
p97
I303
sS'knife.'
p98
I726
sS'say,'
p99
I607
sS"prevent'st"
p100
I723
sS'change'
p101
I287
sS'every'
p102
I858
sS'forgetfulness'
p103
I844
sS'substance'
p104
I62
sS'boast'
p105
I259
sS'worse.'
p106
I640
sS'leaves'
p107
I711
sS'losses'
p108
I294
sS'odour'
p109
I556
sS'proud'
p110
I909
sS'herself'
p111
I875
sS'play.'
p112
I718
sS'makes'
p113
I475
sS'love'
p114
I101
sS'(my'
p115
I517
sS'blessed-fair'
p116
I681
sS'sorrows'
p117
I277
sS'sometime'
p118
I736
sS'bright.'
p119
I539
sS'breathes,'
p120
I619
sS'know,'
p121
I148
sS"love'."
p122
I313
sS'use'
p123
I215
sS'from'
p124
I168
sS'wealth'
p125
I284
sS'would'
p126
I542
sS'thereby,'
p127
I122
sS'give'
p128
I171
sS"world's"
p129
I10
sS'slow,'
p130
I391
sS'next'
p131
I783
sS'pearl'
p132
I326
sS'live'
p133
I33
sS'call'
p134
I471
sS'therefore'
p135
I734
sS'right,'
p136
I411
sS'debate,'
p137
I666
sS'used,'
p138
I624
sS'more'
p139
I218
sS'breathe'
p140
I191
sS'wretched'
p141
I675
sS'leese'
p142
I59
sS'beauteous'
p143
I460
sS'restored,'
p144
I296
sS'becomes'
p145
I830
sS'muse'
p146
I351
sS'fools'
p147
I846
sS'grief'
p148
I439
sS'glass'
p149
I742
sS'warm'
p150
I27
sS'virtue'
p151
I615
sS'sourest'
p152
I692
sS'blood,'
p153
I627
sS'doom'
p154
I161
sS'off,'
p155
I514
sS'sleep'
p156
I657
sS'cunning'
p157
I243
sS'me'
p158
I230
sS'high'
p159
I602
sS'none'
p160
I143
sS"'will.'"
p161
I890
sS'this'
p162
I5
sS'rose,'
p163
I781
sS'wrong.'
p164
I663
sS'wrong,'
p165
I203
sS'ere'
p166
I581
sS'hardest'
p167
I703
sS'can'
p168
I133
sS'praise'
p169
I223
sS'learn'
p170
I233
sS'take,'
p171
I677
sS'my'
p172
I146
sS'heart'
p173
I227
sS'do'
p174
I198
sS'feil'
p175
I821
sS'cupid'
p176
I960
sS'now'
p177
I672
sS'triumph,'
p178
I453
sS'thievish'
p179
I425
sS'well-seeing'
p180
I943
sS'water,'
p181
I966
sS'want'
p182
I244
sS'none,'
p183
I458
sS'allege'
p184
I434
sS'needs'
p185
I334
sS'end'
p186
I157
sS'winter'
p187
I57
sS'pine'
p188
I587
sS'till'
p189
I261
sS'line,'
p190
I651
sS"heart's"
p191
I410
sS'pure'
p192
I785
sS'answer'
p193
I688
sS'sworn'
p194
I937
sS'stand'
p195
I503
sS"eye's"
p196
I406
sS'map'
p197
I551
sS'pleasure'
p198
I493
sS'foes.'
p199
I374
sS'beauty'
p200
I43
sS'may'
p201
I116
sS'near.'
p202
I515
sS'after'
p203
I572
sS'them'
p204
I217
sS'came'
p205
I964
sS'lose.'
p206
I534
sS'blood'
p207
I26
sS'kiss.'
p208
I864
sS'such'
p209
I108
sS'tears,'
p210
I393
sS'grow'
p211
I403
sS'replete'
p212
I797
sS'man'
p213
I811
sS'a'
p214
I86
sS'pale,'
p215
I712
sS'gone.'
p216
I573
sS"tyrants'"
p217
I768
sS'gone,'
p218
I543
sS'cools'
p219
I968
sS'lines'
p220
I524
sS'thou,'
p221
I76
sS'still,'
p222
I175
sS'cold.'
p223
I30
sS'her,'
p224
I735
sS'so'
p225
I75
sS'out.'
p226
I927
sS'keeps'
p227
I174
sS'writ,'
p228
I238
sS"gav'st"
p229
I229
sS'learning,'
p230
I603
sS'dream'
p231
I655
sS'help'
p232
I958
sS'office'
p233
I727
sS'effect.'
p234
I647
sS'unworthiness'
p235
I947
sS'hand.'
p236
I506
sS'sweet.'
p237
I64
sS'blot?'
p238
I682
sS'whilst'
p239
I509
sS'looks,'
p240
I904
sS'still'
p241
I63
sS'hence,'
p242
I731
sS'badges'
p243
I394
sS'hence.'
p244
I141
sS'dreading'
p245
I713
sS'fade,'
p246
I463
sS'style'
p247
I309
sS'pent'
p248
I881
sS'then.'
p249
I936
sS'hearsay'
p250
I220
sS'then,'
p251
I262
sS'how'
p252
I260
sS'pray'
p253
I920
sS'lo'
p254
I267
sS'shun'
p255
I866
sS'bosom'
p256
I105
sS'fair,'
p257
I69
sS'better'
p258
I306
sS'truth.'
p259
I465
sS'choose'
p260
I531
sS'self-willed'
p261
I65
sS"stol'n"
p262
I421
sS'might'
p263
I623
sS'image'
p264
I39
sS'world,'
p265
I2
sS'youth,'
p266
I462
sS'welcome,'
p267
I477
sS'then'
p268
I250
sS'it,'
p269
I187
sS'good'
p270
I341
sS'return'
p271
I824
sS'than'
p272
I632
sS'enrich'
p273
I599
sS'thee'
p274
I112
sS"truth's"
p275
I159
sS'speechless'
p276
I89
sS'young.'
p277
I207
sS"winter's"
p278
I714
sS'flatter,'
p279
I656
sS'they'
p280
I56
sS'stain,'
p281
I319
sS'not'
p282
I35
sS"lovers'"
p283
I469
sS"mistress'"
p284
I963
sS'day'
p285
I269
sS'nor'
p286
I256
sS'strive'
p287
I815
sS'denied.'
p288
I919
sS'name'
p289
I891
sS'only'
p290
I912
sS'all.'
p291
I782
sS'all,'
p292
I591
sS'truth'
p293
I423
sS'muse,'
p294
I728
sS'found'
p295
I955
sS'went'
p296
I445
sS'pen)'
p297
I616
sS'pain'
p298
I356
sS'heavy'
p299
I392
sS'lie'
p300
I898
sS'shows,'
p301
I370
sS'surfeit'
p302
I588
sS'waking'
p303
I659
sS'dead.'
p304
I749
sS'deeds,'
p305
I693
sS'deeds.'
p306
I331
sS'maintain,'
p307
I836
sS'ill-used'
p308
I705
sS'our'
p309
I899
sS'whit'
p310
I315
sS'lesson'
p311
I818
sS'scope,'
p312
I452
sS'out'
p313
I210
sS'large'
p314
I701
sS'self,'
p315
I173
sS'rude'
p316
I604
sS'time:'
p317
I201
sS"eve's"
p318
I685
sS'profit'
p319
I598
sS'since'
p320
I208
sS'cure,'
p321
I956
sS'bad'
p322
I837
sS'time,'
p323
I184
sS'thus,'
p324
I405
sS'day,'
p325
I589
sS'staineth.'
p326
I322
sS'suborned'
p327
I849
sS'hide,'
p328
I917
sS'print'
p329
I124
sS'got'
p330
I961
sS'receiving'
p331
I388
sS'common'
p332
I559
sS'yours,'
p333
I833
sS'mourn'
p334
I856
sS'worthiness'
p335
I451
sS'belied'
p336
I870
sS'lack.'
p337
I879
sS'self)'
p338
I518
sS'book.'
p339
I600
sS'lesser'
p340
I802
sS'ill.'
p341
I488
sS'besides'
p342
I794
sS'put'
p343
I438
sS'woe,'
p344
I671
sS'teach'
p345
I729
sS'woe.'
p346
I396
sS"feel'st"
p347
I28
sS'show,'
p348
I61
sS'advance'
p349
I601
sS'show.'
p350
I689
sS'go.'
p351
I449
sS'fire;'
p352
I962
sS'days'
p353
I384
sS'kingdoms'
p354
I564
sS'times'
p355
I349
sS'turn'
p356
I691
sS'length'
p357
I281
sS'thine'
p358
I38
sS'tempting'
p359
I376
sS'enough'
p360
I791
sS'hence'
p361
I364
sS'black,'
p362
I876
sS'loud'
p363
I921
sS'think'
p364
I291
sS'respect,'
p365
I643
sS'dear.'
p366
I427
sS'feed'
p367
I928
sS'untrue.'
p368
I800
sS'unkind,'
p369
I887
sS'love.'
p370
I817
sS'loved.'
p371
I812
sS'seeming'
p372
I93
sS'loved,'
p373
I299
sS'mayst'
p374
I265
sS'dull'
p375
I709
sS'treasure.'
p376
I216
sS'one'
p377
I359
sS'proceeds.'
p378
I873
sS'another'
p379
I113
sS'new.'
p380
I170
sS'soul'
p381
I851
sS'have,'
p382
I347
sS'fire'
p383
I926
sS'given'
p384
I500
sS'be.'
p385
I52
sS'silent'
p386
I236
sS'be,'
p387
I7
sS'thoughts,'
p388
I645
sS'love,'
p389
I433
sS'breed'
p390
I136
sS'seat'
p391
I758
sS'proved,'
p392
I810
sS'least'
p393
I854
sS'slain,'
p394
I228
sS'their'
p395
I60
sS'cheer,'
p396
I710
sS'too'
p397
I68
sS'rare,'
p398
I869
sS'dwell'
p399
I468
sS'badness'
p400
I838
sS'begin.'
p401
I805
sS'friend'
p402
I380
sS'gives'
p403
I195
sS'eyes'
p404
I192
sS'rare.'
p405
I480
sS'that'
p406
I104
sS'fee,'
p407
I831
sS'tongue'
p408
I859
sS'universe'
p409
I779
sS'perforce'
p410
I882
sS'wastes'
p411
I721
sS'loving'
p412
I786
sS'copy'
p413
I127
sS'spites'
p414
I372
sS'grace'
p415
I245
sS"here's"
p416
I378
sS'remember'
p417
I842
sS'wide'
p418
I778
sS'unlooked'
p419
I81
sS'feeds'
p420
I930
sS'was'
p421
I554
sS'pain.'
p422
I906
sS'wilt,'
p423
I880
sS'speaking'
p424
I646
sS'loves'
p425
I382
sS'were'
p426
I16
sS'toward'
p427
I102
sS'old,'
p428
I23
sS'and'
p429
I14
sS'so.'
p430
I154
sS'false'
p431
I377
sS'angel'
p432
I925
sS'part,'
p433
I409
sS'mind'
p434
I798
sS'mine'
p435
I213
sS'spent.'
p436
I772
sS'well,'
p437
I221
sS'say'
p438
I153
sS'himself'
p439
I107
sS'have'
p440
I457
sS'need'
p441
I626
sS'seem'
p442
I282
sS'abused.'
p443
I628
sS'seek'
p444
I916
sS'any'
p445
I485
sS'sings'
p446
I95
sS'nights'
p447
I385
sS'form'
p448
I777
sS'self'
p449
I77
sS'still.'
p450
I923
sS'adjunct'
p451
I841
sS'thing)'
p452
I486
sS'noon:'
p453
I80
sS'which'
p454
I47
sS'finding'
p455
I773
sS'bad.'
p456
I550
sS'flattered'
p457
I901
sS'that,'
p458
I584
sS'towards'
p459
I447
sS'unless'
p460
I84
sS'incapable'
p461
I796
sS'sell.'
p462
I225
sS'tongue:'
p463
I738
sS'who'
p464
I363
sS"time's"
p465
I131
sS'unused'
p466
I42
sS'most'
p467
I618
sS'long.'
p468
I582
sS"none'."
p469
I99
sS'nothing'
p470
I129
sS'see,'
p471
I193
sS'tired'
p472
I540
sS'why'
p473
I432
sS'grave'
p474
I13
sS'shalt'
p475
I765
sS'constancy'
p476
I816
sS'babe,'
p477
I806
sS'into'
p478
I569
sS'lose'
p479
I706
sS'stronger'
p480
I283
sS'glutton'
p481
I6
sS'pay.'
p482
I609
sS'not.'
p483
I684
sS'painting'
p484
I520
sS'alone,'
p485
I676
sS'sing,'
p486
I708
sS'alone.'
p487
I383
sS'lest'
p488
I567
sS'show'
p489
I263
sS'fond'
p490
I638
sS'one,'
p491
I94
sS'one.'
p492
I759
sS'bring'
p493
I575
sS'bright'
p494
I386
sS'telling'
p495
I593
sS'fear'
p496
I744
sS'fine'
p497
I241
sS'find'
p498
I766
sS'true,'
p499
I751
sS'flowers'
p500
I53
sS'shouldst'
p501
I123
sS'true'
p502
I481
sS'robs'
p503
I337
sS'waiting'
p504
I490
sS'many,'
p505
I92
sS'should'
p506
I185
sS'(such'
p507
I614
sS'going,'
p508
I444
sS'tears'
p509
I325
sS'free.'
p510
I886
sS'black'
p511
I523
sS'pleasure,'
p512
I212
sS"'thou"
p513
I96
sS'green.'
p514
I527
sS'impeached,'
p515
I852
sS'run,'
p516
I448
sS'sure'
p517
I495
sS'first'
p518
I774
sS'meant'
p519
I121
sS'accessary'
p520
I333
sS'his'
p521
I312
sS'fair:'
p522
I953
sS'get'
p523
I85
sS'mouths'
p524
I620
sS"'tis"
p525
I516
sS'watch'
p526
I507
sS'bear'
p527
I662
sS'cannot'
p528
I530
sS'words'
p529
I642
sS'despite'
p530
I202
sS'him'
p531
I314
sS'had,'
p532
I546
sS'blind.'
p533
I946
sS'remove'
p534
I255
sS'men,'
p535
I931
sS'twice'
p536
I186
sS'men.'
p537
I621
sS'control.'
p538
I855
sS'she'
p539
I117
sS'swear'
p540
I874
sS'maketh'
p541
I799
sS'where'
p542
I254
sS'contains,'
p543
I585
sS'view'
p544
I300
sS'straight,'
p545
I908
sS'art'
p546
I22
sS'moan,'
p547
I570
sS'perjured'
p548
I954
sS'reign.'
p549
I839
sS'theirs'
p550
I308
sS'up'
p551
I650
sS'see'
p552
I24
sS'dumb'
p553
I644
sS'are'
p554
I295
sS'flattery,'
p555
I381
sS'outward'
p556
I408
sS'best'
p557
I345
sS'end.'
p558
I297
sS'find.'
p559
I274
sS'crooked'
p560
I725
sS'away'
p561
I172
sS'please'
p562
I352
sS'slander'
p563
I872
sS'mind,'
p564
I272
sS'state'
p565
I288
sS"there's"
p566
I934
sS'complexion'
p567
I878
sS'scorn'
p568
I286
sS'drawn'
p569
I176
sS'before'
p570
I548
sS'(though'
p571
I484
sS'date.'
p572
I162
sS'saucy'
p573
I860
sS'we'
p574
I373
sS'never'
p575
I756
sS'nature'
p576
I552
sS'joy'
p577
I442
sS'blame'
p578
I492
sS'faults'
p579
I900
sS'days,'
p580
I355
sS'add'
p581
I636
sS'awards'
p582
I915
sS'diest'
p583
I83
sS'thank'
p584
I606
sS'pity'
p585
I0
sS'days.'
p586
I522
sS'eyes,'
p587
I631
sS'last'
p588
I549
sS'sort,'
p589
I339
sS'thou'
p590
I21
sS'false,'
p591
I683
sS'ill'
p592
I330
sS'thence'
p593
I420
sS'quiet'
p594
I273
sS'against'
p595
I664
sS'strains'
p596
I670
sS'present'
p597
I761
sS'joy,'
p598
I379
sS'inward'
p599
I412
sS'tongues'
p600
I764
sS'doubt,'
p601
I924
sS'sweet'
p602
I178
sS'live,'
p603
I526
sS'winter,'
p604
I472
sS'hers'
p605
I375
sS'arise,'
p606
I467
sS'now,'
p607
I755
sS'now.'
p608
I733
sS'bred,'
p609
I776
sS'i,'
p610
I508
sS'due'
p611
I407
sS'breath'
p612
I617
sS'whom'
p613
I368
sS'removed.'
p614
I257
sS'much'
p615
I67
sS'lovely'
p616
I461
sS'thrice'
p617
I478
sS'rich,'
p618
I328
sS'life'
p619
I196
sS'lived'
p620
I753
sS'general'
p621
I834
sS'crying'
p622
I922
sS'king,'
p623
I658
sS'both'
p624
I633
sS'conceit'
p625
I775
sS'unbred,'
p626
I746
sS"what's"
p627
I680
sS'dead,'
p628
I933
sS'else'
p629
I4
sS'lives'
p630
I49
sS'external'
p631
I456
sS'child'
p632
I181
sS'doth'
p633
I275
sS'former'
p634
I497
sS'those'
p635
I324
sS'transferred.'
p636
I897
sS'delight.'
p637
I418
sS'sourly'
p638
I336
sS'look'
p639
I343
sS'wilt'
p640
I97
sS'straight'
p641
I402
sS'remains.'
p642
I586
sS'single'
p643
I37
sS'will'
p644
I222
sS'cast'
p645
I611
sS'while'
p646
I290
sS'well.'
p647
I494
sS'will,'
p648
I483
sS'shall'
p649
I204
sS'error'
p650
I808
sS'care,'
p651
I474
sS'life,'
p652
I722
sS'art,'
p653
I246
sS'fool'
p654
I482
sS'brings,'
p655
I285
sS"either's"
p656
I395
sS'soil'
p657
I558
sS'is'
p658
I158
sS'thus'
p659
I268
sS'it'
p660
I29
sS'sad.'
p661
I404
sS'gluttoning'
p662
I590
sS'lascivious'
p663
I366
sS'shame'
p664
I110
sS'vow'
p665
I665
sS'owes'
p666
I608
sS'in'
p667
I79
sS'crime.'
p668
I848
sS'rid'
p669
I905
sS'sits'
p670
I106
sS'alone'
p671
I563
sS'fame'
p672
I719
sS'meet,'
p673
I58
sS'if'
p674
I32
sS'ransom'
p675
I329
sS'away.'
p676
I592
sS'away,'
p677
I612
sS'heart.'
p678
I249
sS'heart,'
p679
I417
sS'assure'
p680
I789
sS'things'
p681
I577
sS'make'
p682
I72
sS'these,'
p683
I541
sS'same'
p684
I436
sS"perceiv'st,"
p685
I579
sS'distilled'
p686
I54
sS"th'"
p687
I50
sS'look,'
p688
I597
sS'how,'
p689
I730
sS'used'
p690
I48
sS'sit,'
p691
I741
sS'praising'
p692
I361
sS'owe.'
p693
I566
sS'upon'
p694
I809
sS'read,'
p695
I311
sS'evil'
p696
I835
sS'nightly'
p697
I279
sS'strength'
p698
I430
sS'purpose'
p699
I224
sS'wretchcd'
p700
I678
sS'weep'
p701
I532
sS'judgment'
p702
I466
sS'shamed'
p703
I574
sS'keep'
p704
I840
sS'grow.'
p705
I560
sS'(dear'
p706
I292
sS'grow,'
p707
I687
sS'will.'
p708
I893
sS'kept'
p709
I757
sS'thy'
p710
I25
sS'i'
p711
I155
sS'wilful-slow,'
p712
I446
sS'well'
p713
I369
sS'plague'
p714
I896
sS'thought'
p715
I528
sS'heir.'
p716
I74
sS'privilege,'
p717
I702
sS'oft'
p718
I596
sS'self-example'
p719
I918
sS'hearts'
p720
I565
sS'the'
p721
I1
sS'cure'
p722
I792
sS'yours'
p723
I182
sS'distills'
p724
I464
sS'summer'
p725
I748
sS'devise.'
p726
I634
sS'ransoms'
p727
I832
sS'being'
p728
I91
sS'fears'
p729
I533
sS'matter.'
p730
I660
sS'matter,'
p731
I652
sS'kill'
p732
I371
sS'sleep,'
p733
I413
sS'kill,'
p734
I889
sS'yet'
p735
I197
sS'dost'
p736
I510
sS'limbs,'
p737
I270
sS'wonder,'
p738
I762
sS'death'
p739
I529
sS'onward'
p740
I441
sS'had'
p741
I149
sS"summer's"
p742
I476
sS'verse'
p743
I205
sS'belongs'
p744
I240
sS'dreams'
p745
I387
sS'beloved'
p746
I253
sS'save'
p747
I135
sS'lies,'
p748
I959
sS'offices,'
p749
I595
sS'take'
p750
I698
sS'thee.'
p751
I15
sS'longer,'
p752
I278
sS'thee,'
p753
I46
sS'erred,'
p754
I895
sS'ye,'
p755
I790
sS'awakes'
p756
I416
sS'read'
p757
I234
sS'sheds,'
p758
I327
sS'dark'
p759
I939
sS'know'
p760
I248
sS'presume'
p761
I226
sS'others,'
p762
I641
sS'world'
p763
I318
sS'shadow'
p764
I716
sS'store,'
p765
I553
sS'behold'
p766
I760
sS'dare'
p767
I258
sS'loss'
p768
I674
sS'outright'
p769
I903
sS'hate.'
p770
I668
sS'apple'
p771
I686
sS'like'
p772
I219
sS'hell.'
p773
I868
sS'belong,'
p774
I661
sS'miracle'
p775
I535
sS'beseechers'
p776
I888
sS'mock'
p777
I571
sS'yore.'
p778
I555
sS'night'
p779
I271
sS'kings.'
p780
I289
sS'tombed'
p781
I45
sS'worth.'
p782
I578
sS'worth,'
p783
I504
sS'because'
p784
I739
sS'old'
p785
I200
sS'often'
p786
I752
sS'content,'
p787
I826
sS'bright,'
p788
I938
sS'some'
p789
I180
sS'thief'
p790
I335
sS'alive'
p791
I183
sS'born'
p792
I747
sS'lips'
p793
I863
sS'elements'
p794
I390
sS'sight'
p795
I415
sS'images'
p796
I298
sS'curious'
p797
I354
sS'thinks'
p798
I487
sS'gross'
p799
I622
sS"heaven's"
p800
I320
sS'for'
p801
I66
sS'glad,'
p802
I399
sS'though'
p803
I55
sS'stores,'
p804
I545
sS'which,'
p805
I745
sS'masked'
p806
I562
sS'three'
p807
I754
sS'knife'
p808
I704
sS'be'
p809
I17
sS'poets'
p810
I305
sS'heed'
p811
I699
sS'slight'
p812
I350
sS'remembered'
p813
I34
sS'commits.'
p814
I111
sS"death's"
p815
I70
sS'trespass'
p816
I829
sS'father,'
p817
I150
sS'worthy'
p818
I949
sS'told,'
p819
I397
sS'eye'
p820
I804
sS'told.'
p821
I594
sS'by'
p822
I12
sS'takes'
p823
I140
sS'shine'
p824
I538
sS'on'
p825
I82
sS"murd'rous"
p826
I109
sS'of'
p827
I114
sS'prove'
p828
I98
sS'disdaineth,'
p829
I316
sS'o'
p830
I142
sS'thrive'
p831
I610
sS'mine.'
p832
I654
sS'mine,'
p833
I340
sS'blessings'
p834
I635
sS'twain,'
p835
I360
sS'lacked'
p836
I454
sS'goodness,'
p837
I847
sS'or'
p838
I3
sS'fester,'
p839
I695
sS'bath'
p840
I957
sS'whole,'
p841
I885
sS'raised'
p842
I948
sS'own'
p843
I177
sS'hope.'
p844
I455
sS'hope,'
p845
I502
sS'countenance'
p846
I648
sS'pays'
p847
I884
sS'conquest'
p848
I71
sS'nought'
p849
I389
sS'blessed'
p850
I450
sS'son'
p851
I152
sS'lies'
p852
I440
sS'right'
p853
I894
sS'edge.'
p854
I707
sS'import'
p855
I843
sS'wit.'
p856
I242
sS'your'
p857
I151
sS'prognosticate,'
p858
I156
sS'due,'
p859
I11
sS'her'
p860
I119
sS'there'
p861
I629
sS'teachest'
p862
I358
sS'long'
p863
I189
sS'rhyme.'
p864
I188
sS"grief's"
p865
I280
sS'war'
p866
I164
sS'happy'
p867
I251
sS'you.'
p868
I823
sS'head'
p869
I264
sS'you,'
p870
I166
sS'jacks'
p871
I861
sS'groan'
p872
I437
sS'wits'
p873
I496
sS'ills'
p874
I828
sS'becoming'
p875
I857
sS'so,'
p876
I338
sS'but'
p877
I31
sS'back'
p878
I231
sS'pricked'
p879
I209
sS'hear'
p880
I239
sS'gain'
p881
I827
sS'scythe,'
p882
I724
sS'curse,'
p883
I637
sS'they)'
p884
I302
sS'with'
p885
I41
sS'eat'
p886
I9
sS'weeds.'
p887
I697
sS'he'
p888
I139
sS'count'
p889
I913
sS'lilies'
p890
I694
sS'made'
p891
I19
sS'wise'
p892
I568
sS'ignorance.'
p893
I605
sS'wish'
p894
I346
sS'this,'
p895
I194
sS'cruel'
p896
I505
sS'growth'
p897
I807
sS'engraft'
p898
I169
sS'compare.'
p899
I871
sS'wait,'
p900
I489
sS'eyes.'
p901
I470
sS'cheeks'
p902
I625
sS"lov'st,"
p903
I945
sS'strongly'
p904
I793
sS"love's"
p905
I214
sS'friend,'
p906
I788
sS'constant'
p907
I459
sS'friend)'
p908
I293
sS'ah'
p909
I323
sS'am'
p910
I252
sS"beauty's"
p911
I160
sS'an'
p912
I332
sS'breast.'
p913
I787
sS'dear'
p914
I145
sS'as'
p915
I167
sS'proves'
p916
I424
sS'die.'
p917
I128
sS'carved'
p918
I118
sS'die,'
p919
I544
sS'ink'
p920
I537
sS'wide.'
p921
I911
sS'kind,'
p922
I750
sS'knows'
p923
I865
sS'since,'
p924
I547
sS'again'
p925
I401
sS'song.'
p926
I740
sS'compared'
p927
I673
sS'dying'
p928
I935
sS'no'
p929
I100
sS'when'
p930
I20
sS"lov'st"
p931
I892
sS'lost,'
p932
I883
sS'drugs'
p933
I819
sS'other'
p934
I669
sS'witness'
p935
I845
sS'sick'
p936
I822
sS'call,'
p937
I780
sS'you'
p938
I147
sS'smell'
p939
I696
sS'shows'
p940
I732
sS'hell,'
p941
I491
sS'poor'
p942
I429
sS'picture'
p943
I414
sS'draw'
p944
I247
sS'executor'
p945
I51
sS'again.'
p946
I232
sS'says'
p947
I814
sS'unthrifts,'
p948
I144
sS'dies'
p949
I40
sS'prove,'
p950
I307
sS'methinks'
p951
I795
sS'rise'
p952
I951
sS'death,'
p953
I929
sS'brass'
p954
I771
sS'died'
p955
I304
sS'longer'
p956
I398
sS'strong,'
p957
I580
sS'age'
p958
I521
sS'daily'
p959
I276
sS'admiring'
p960
I501
sS'belied,'
p961
I907
sS'fear,'
p962
I422
sS'heats'
p963
I965
sS'night.'
p964
I940
sS'time'
p965
I165
sS'fair'
p966
I630
sS'wake'
p967
I511
sS'fall.'
p968
I952
sS'once'
p969
I932
s.