(dp0
S'fawn'
p1
I1
sS'pardon'
p2
I2
sS'yellow'
p3
I2
sS'four'
p4
I1
sS'hath'
p5
I1
sS'sleep'
p6
I1
sS"friend's"
p7
I1
sS'hanging'
p8
I2
sS'mansion'
p9
I2
sS'appetite'
p10
I3
sS'evermore'
p11
I3
sS'hate'
p12
I1
sS'forget'
p13
I2
sS'whose'
p14
I1
sS'feeding'
p15
I2
sS'vile'
p16
I1
sS'granting'
p17
I2
sS'sweetest'
p18
I2
sS'presents'
p19
I2
sS'walks'
p20
I1
sS"there's"
p21
I1
sS'whatsoever'
p22
I4
sS'under'
p23
I2
sS'lord'
p24
I1
sS'sorry'
p25
I2
sS'pride'
p26
I1
sS'sway'
p27
I1
sS'worth'
p28
I1
sS'wondrous'
p29
I2
sS'tune'
p30
I1
sS'discased'
p31
I2
sS'dispense'
p32
I2
sS'hadst'
p33
I1
sS'inhearse'
p34
I2
sS"women's"
p35
I2
sS'shoot'
p36
I1
sS'every'
p37
I3
sS'foul'
p38
I1
sS'nourished'
p39
I2
sS"o'er-read"
p40
I2
sS'special'
p41
I2
sS'believed'
p42
I2
sS'uttering'
p43
I3
sS'prize'
p44
I1
sS'unrest'
p45
I2
sS'graced'
p46
I1
sS'succession'
p47
I3
sS'graces'
p48
I1
sS'triumph'
p49
I2
sS'enjoy'
p50
I2
sS'charter'
p51
I2
sS'force'
p52
I1
sS'tired'
p53
I1
sS'awake'
p54
I2
sS'razed'
p55
I1
sS'out-going'
p56
I3
sS'assure'
p57
I2
sS'tires'
p58
I1
sS'crave'
p59
I1
sS'persuade'
p60
I2
sS'quill'
p61
I1
sS'even'
p62
I2
sS'beated'
p63
I2
sS'captain'
p64
I2
sS'hide'
p65
I1
sS"ne'er"
p66
I1
sS'solemn'
p67
I2
sS'thunder'
p68
I2
sS'fingers'
p69
I2
sS'liberty'
p70
I3
sS'children'
p71
I2
sS'worser'
p72
I2
sS'inheritors'
p73
I4
sS'above'
p74
I2
sS'matcheth'
p75
I2
sS'new'
p76
I1
sS'poorly'
p77
I2
sS'ever'
p78
I2
sS'told'
p79
I1
sS'deemed'
p80
I1
sS'merchandized'
p81
I3
sS'sinks'
p82
I1
sS'join'
p83
I1
sS'never'
p84
I2
sS'here'
p85
I1
sS'herd'
p86
I1
sS'beck'
p87
I1
sS"sweet'st"
p88
I1
sS'pursuit'
p89
I2
sS'active'
p90
I2
sS'spies'
p91
I1
sS'a-doting'
p92
I3
sS'effectually'
p93
I5
sS'dry'
p94
I1
sS'resty'
p95
I2
sS'substance'
p96
I2
sS'gaol'
p97
I1
sS'leaves'
p98
I1
sS'climbed'
p99
I1
sS'credit'
p100
I2
sS'smoke'
p101
I1
sS'permit'
p102
I2
sS'bettered'
p103
I2
sS'mistake'
p104
I2
sS'settled'
p105
I2
sS'politic'
p106
I3
sS'golden'
p107
I2
sS'swearing'
p108
I2
sS'divide'
p109
I2
sS'motley'
p110
I2
sS'blessed-fair'
p111
I3
sS'sorrows'
p112
I2
sS'patience'
p113
I2
sS'stern'
p114
I1
sS'costly'
p115
I2
sS'glance'
p116
I1
sS"light's"
p117
I1
sS'plot'
p118
I1
sS'budding'
p119
I2
sS'would'
p120
I1
sS'recured'
p121
I2
sS"world's"
p122
I1
sS'junes'
p123
I1
sS'music'
p124
I2
sS'therefore'
p125
I2
sS'survive'
p126
I2
sS'gilding'
p127
I2
sS'tell'
p128
I1
sS'breathe'
p129
I1
sS'leese'
p130
I1
sS'unbless'
p131
I2
sS'holy'
p132
I2
sS'wary'
p133
I2
sS'brings'
p134
I1
sS'muse'
p135
I1
sS'herein'
p136
I2
sS'grief'
p137
I1
sS'glass'
p138
I1
sS'warm'
p139
I1
sS'excellent'
p140
I3
sS'robbing'
p141
I2
sS'ward'
p142
I1
sS'hold'
p143
I1
sS'striving'
p144
I2
sS'must'
p145
I1
sS'me'
p146
I1
sS'locked'
p147
I1
sS'room'
p148
I1
sS'err'
p149
I1
sS'rights'
p150
I1
sS'work'
p151
I1
sS'eclipse'
p152
I2
sS'roof'
p153
I1
sS'meadows'
p154
I2
sS'ere'
p155
I1
sS'leaped'
p156
I1
sS'revenues'
p157
I3
sS'my'
p158
I1
sS'example'
p159
I3
sS'lodged'
p160
I1
sS'phrase'
p161
I1
sS'subtleties'
p162
I3
sS'fresher'
p163
I1
sS'wane'
p164
I1
sS'unjust'
p165
I2
sS'honey'
p166
I2
sS'foist'
p167
I1
sS'kingdoms'
p168
I2
sS'respose'
p169
I2
sS'keep'
p170
I1
sS'worse'
p171
I1
sS'ceremony'
p172
I4
sS"consum'st"
p173
I2
sS'gusts'
p174
I1
sS'provide'
p175
I2
sS'dignifies'
p176
I3
sS'travel'
p177
I2
sS'indirectly'
p178
I4
sS'feature'
p179
I2
sS'wights'
p180
I1
sS'how'
p181
I1
sS'hot'
p182
I1
sS'writers'
p183
I2
sS'low'
p184
I1
sS'answer'
p185
I2
sS'gate'
p186
I1
sS'dignified'
p187
I3
sS"o'er-snowed"
p188
I2
sS'blanks'
p189
I1
sS'beauty'
p190
I2
sS'after'
p191
I2
sS'wrong'
p192
I1
sS'lay'
p193
I1
sS'lap'
p194
I1
sS'wronk'
p195
I1
sS"rud'st"
p196
I1
sS'revolt'
p197
I2
sS'greet'
p198
I1
sS'purging'
p199
I2
sS'wink'
p200
I1
sS'maintain'
p201
I2
sS'green'
p202
I1
sS'keeps'
p203
I1
sS'alack'
p204
I2
sS'wouldst'
p205
I1
sS'wind'
p206
I1
sS'bed-vow'
p207
I2
sS'determinate'
p208
I4
sS'couplement'
p209
I3
sS'after-loss'
p210
I3
sS'office'
p211
I2
sS'consent'
p212
I2
sS'profaned'
p213
I2
sS'sickly'
p214
I2
sS'fortify'
p215
I3
sS'ghastly'
p216
I2
sS'strangle'
p217
I2
sS"bestow'st"
p218
I2
sS'wrought'
p219
I1
sS'before'
p220
I2
sS'better'
p221
I2
sS'fade'
p222
I1
sS'carve'
p223
I1
sS'hidden'
p224
I2
sS'savour'
p225
I2
sS'then'
p226
I1
sS'them'
p227
I1
sS'blots'
p228
I1
sS'enrich'
p229
I2
sS'thee'
p230
I1
sS"truth's"
p231
I1
sS'break'
p232
I1
sS"winter's"
p233
I2
sS'diseased'
p234
I2
sS'they'
p235
I1
sS'glazed'
p236
I1
sS'one'
p237
I1
sS'silver'
p238
I2
sS'shadows'
p239
I2
sS'rhetoric'
p240
I3
sS'brightness'
p241
I2
sS'slavery'
p242
I3
sS'rocks'
p243
I1
sS'herald'
p244
I2
sS'victories'
p245
I3
sS'needing'
p246
I2
sS'each'
p247
I1
sS'wantonly'
p248
I3
sS'dulness'
p249
I2
sS'went'
p250
I1
sS'side'
p251
I1
sS'luck'
p252
I1
sS'true-telling'
p253
I3
sS'woes'
p254
I1
sS'concord'
p255
I2
sS"'will'"
p256
I1
sS'taught'
p257
I1
sS'forgot'
p258
I2
sS'misprision'
p259
I3
sS'whit'
p260
I1
sS'truant'
p261
I2
sS'array'
p262
I2
sS'borne'
p263
I1
sS'contend'
p264
I2
sS'large'
p265
I1
sS'decree'
p266
I2
sS'weakness'
p267
I2
sS'sang'
p268
I1
sS'god'
p269
I1
sS'forty'
p270
I2
sS"run'st"
p271
I1
sS'content'
p272
I2
sS'laid'
p273
I1
sS'heart-inflaming'
p274
I4
sS'heavenly'
p275
I3
sS'got'
p276
I1
sS'marigold'
p277
I3
sS'forth'
p278
I1
sS'prizing'
p279
I2
sS'assured'
p280
I2
sS'written'
p281
I2
sS'fadeth'
p282
I2
sS'hang'
p283
I1
sS'deceived'
p284
I2
sS'eternal'
p285
I3
sS'given'
p286
I2
sS'free'
p287
I1
sS'mourning'
p288
I2
sS'mistaking'
p289
I3
sS'bestow'
p290
I2
sS'whereupon'
p291
I3
sS'rain'
p292
I1
sS'crowned'
p293
I1
sS'mistress'
p294
I2
sS'knit'
p295
I1
sS'wantonness'
p296
I3
sS"receiv'st"
p297
I2
sS'created'
p298
I2
sS'days'
p299
I1
sS'bears'
p300
I1
sS'renew'
p301
I2
sS'tempting'
p302
I2
sS'unknown'
p303
I2
sS'tied'
p304
I1
sS'potions'
p305
I2
sS'loud'
p306
I1
sS'ruinate'
p307
I3
sS'purpose'
p308
I2
sS'separable'
p309
I4
sS'untutored'
p310
I3
sS'already'
p311
I3
sS'crowning'
p312
I2
sS'hearsay'
p313
I2
sS"'greeing"
p314
I2
sS'rank'
p315
I1
sS'hearing'
p316
I2
sS'jealous'
p317
I2
sS'featured'
p318
I2
sS'another'
p319
I3
sS'sober'
p320
I3
sS'filching'
p321
I2
sS'exchequer'
p322
I3
sS'usurer'
p323
I3
sS'top'
p324
I1
sS'hawks'
p325
I1
sS'millioned'
p326
I2
sS'master'
p327
I4
sS'too'
p328
I1
sS'dwell'
p329
I1
sS'bitter'
p330
I2
sS'monuments'
p331
I3
sS'saith'
p332
I1
sS'broils'
p333
I1
sS'feathers'
p334
I2
sS'griefs'
p335
I1
sS'took'
p336
I1
sS'wisdom'
p337
I2
sS'wardrobe'
p338
I2
sS"youth's"
p339
I1
sS'character'
p340
I3
sS'begins'
p341
I2
sS'distance'
p342
I2
sS"here's"
p343
I1
sS'coward'
p344
I2
sS"mother's"
p345
I2
sS'bitterness'
p346
I3
sS'idly'
p347
I2
sS'matter'
p348
I2
sS'idle'
p349
I2
sS'invention'
p350
I3
sS'flame'
p351
I1
sS'friend'
p352
I1
sS'deserving'
p353
I3
sS'askance'
p354
I2
sS'knights'
p355
I1
sS'feeling'
p356
I2
sS'powers'
p357
I2
sS'swift-footed'
p358
I3
sS'fashion'
p359
I2
sS'sees'
p360
I1
sS'gaudy'
p361
I2
sS"mind's"
p362
I1
sS'modern'
p363
I2
sS'mind'
p364
I1
sS'mine'
p365
I1
sS'spent'
p366
I1
sS'manner'
p367
I2
sS'amiss'
p368
I2
sS'bewailed'
p369
I2
sS"deserv'st"
p370
I2
sS'churl'
p371
I1
sS'seem'
p372
I1
sS'seek'
p373
I1
sS'tells'
p374
I1
sS'contents'
p375
I2
sS'praising'
p376
I2
sS'strength'
p377
I1
sS'neck'
p378
I1
sS'snow'
p379
I1
sS'sound'
p380
I1
sS'chest'
p381
I1
sS'subjects'
p382
I2
sS'laughed'
p383
I1
sS'pilgrimage'
p384
I3
sS'rider'
p385
I2
sS'aggravate'
p386
I3
sS'maiden'
p387
I2
sS'though'
p388
I1
sS'object'
p389
I2
sS'dial'
p390
I2
sS'justify'
p391
I3
sS'dulling'
p392
I2
sS'errors'
p393
I2
sS'ashes'
p394
I2
sS'disarmed'
p395
I2
sS'grave'
p396
I1
sS'shalt'
p397
I1
sS'constancy'
p398
I3
sS'consumed'
p399
I1
sS'flow'
p400
I1
sS'breathes'
p401
I1
sS'steeled'
p402
I1
sS'points'
p403
I1
sS'wrecked'
p404
I1
sS'fitted'
p405
I2
sS'reserve'
p406
I2
sS'wild'
p407
I1
sS'renewed'
p408
I2
sS'bait'
p409
I1
sS'oaths'
p410
I1
sS'enjoyer'
p411
I3
sS'ending'
p412
I2
sS'poison'
p413
I2
sS'earth'
p414
I1
sS'bail'
p415
I1
sS'enjoyed'
p416
I2
sS'bearer'
p417
I2
sS'touches'
p418
I2
sS'copy'
p419
I2
sS'proposed'
p420
I2
sS'spite'
p421
I1
sS'herself'
p422
I2
sS'cupid'
p423
I2
sS'bliss'
p424
I1
sS'touched'
p425
I1
sS'rich'
p426
I1
sS'pursuing'
p427
I3
sS'mend'
p428
I1
sS"'thou"
p429
I1
sS'borrowed'
p430
I2
sS'do'
p431
I2
sS'blenches'
p432
I2
sS'forsworn'
p433
I2
sS'stop'
p434
I1
sS'perceive'
p435
I2
sS'leisure'
p436
I2
sS'raiment'
p437
I2
sS'gored'
p438
I1
sS'bootless'
p439
I2
sS'spirit'
p440
I2
sS'despite'
p441
I2
sS'report'
p442
I2
sS'saturn'
p443
I2
sS'seemly'
p444
I2
sS'runs'
p445
I1
sS'increasing'
p446
I1
sS'bar'
p447
I1
sS'exchanged'
p448
I2
sS'beseem'
p449
I2
sS'thrusts'
p450
I1
sS'doting'
p451
I2
sS'twice'
p452
I1
sS'eyelids'
p453
I2
sS'esteeming'
p454
I3
sS'hasten'
p455
I2
sS'steal'
p456
I1
sS'farther'
p457
I2
sS'unprovident'
p458
I4
sS'penance'
p459
I2
sS"wond'ring"
p460
I2
sS'unrespected'
p461
I3
sS'fair'
p462
I1
sS'habit'
p463
I2
sS'imitate'
p464
I3
sS'proclaims'
p465
I2
sS'depends'
p466
I2
sS'corrupt'
p467
I2
sS'best'
p468
I1
sS'subject'
p469
I2
sS'said'
p470
I1
sS'temptation'
p471
I3
sS"bett'ring"
p472
I2
sS'away'
p473
I2
sS'sail'
p474
I1
sS'bier'
p475
I1
sS'madding'
p476
I2
sS'wilful-slow'
p477
I3
sS'mud'
p478
I1
sS'score'
p479
I1
sS'finger'
p480
I2
sS'pebbled'
p481
I2
sS'scorn'
p482
I1
sS'drawn'
p483
I1
sS'enlighten'
p484
I3
sS'preserve'
p485
I2
sS'warrior'
p486
I2
sS'we'
p487
I1
sS'men'
p488
I1
sS'terms'
p489
I1
sS'parallels'
p490
I3
sS'nature'
p491
I2
sS'weak'
p492
I1
sS'ignorance'
p493
I3
sS'authorizing'
p494
I4
sS'disdaineth'
p495
I3
sS'wear'
p496
I1
sS'diest'
p497
I1
sS'news'
p498
I1
sS'debt'
p499
I1
sS'tempests'
p500
I2
sS'pity'
p501
I2
sS'foes'
p502
I1
sS'goddess'
p503
I2
sS'accident'
p504
I3
sS'disdain'
p505
I2
sS'fault'
p506
I1
sS'ill'
p507
I1
sS'against'
p508
I2
sS'brag'
p509
I1
sS'receives'
p510
I2
sS'faces'
p511
I2
sS'exceeds'
p512
I2
sS'expense'
p513
I2
sS'groans'
p514
I1
sS'asked'
p515
I1
sS'suggest'
p516
I2
sS'vexed'
p517
I1
sS'honouring'
p518
I3
sS'burthen'
p519
I2
sS'height'
p520
I1
sS'hers'
p521
I1
sS'prone'
p522
I1
sS'springs'
p523
I1
sS'over-plus'
p524
I3
sS'trust'
p525
I1
sS'heals'
p526
I1
sS'speak'
p527
I1
sS'yellowed'
p528
I2
sS'unhappily'
p529
I4
sS'puts'
p530
I1
sS'eager'
p531
I2
sS'time-bettering'
p532
I4
sS'three'
p533
I1
sS'been'
p534
I1
sS'particulars'
p535
I4
sS'twain'
p536
I1
sS'presagers'
p537
I3
sS'interest'
p538
I3
sS'incertainty'
p539
I4
sS'privilege'
p540
I3
sS'vermilion'
p541
I3
sS'lovely'
p542
I2
sS'thrice'
p543
I1
sS'idol'
p544
I2
sS'life'
p545
I1
sS"brav'ry"
p546
I2
sS'easy'
p547
I2
sS'erred'
p548
I1
sS'drugs'
p549
I1
sS'maladies'
p550
I3
sS'decrepit'
p551
I3
sS'dote'
p552
I1
sS'child'
p553
I1
sS'catch'
p554
I1
sS'doth'
p555
I1
sS'erst'
p556
I1
sS'gracious'
p557
I2
sS'physician'
p558
I3
sS'east'
p559
I1
sS'air'
p560
I1
sS'lesser'
p561
I2
sS'ugly'
p562
I2
sS'near'
p563
I1
sS'suppose'
p564
I2
sS'aid'
p565
I1
sS'voice'
p566
I1
sS'weakens'
p567
I2
sS'played'
p568
I1
sS'is'
p569
I1
sS'it'
p570
I1
sS'defeated'
p571
I2
sS'shame'
p572
I1
sS'to-morrow'
p573
I3
sS'splendour'
p574
I2
sS'in'
p575
I1
sS'bounteous'
p576
I3
sS'if'
p577
I1
sS'grown'
p578
I1
sS'wooing'
p579
I2
sS'memorial'
p580
I4
sS'awakes'
p581
I2
sS'cools'
p582
I1
sS'patent'
p583
I2
sS'things'
p584
I1
sS'make'
p585
I1
sS'wound'
p586
I1
sS"lords'"
p587
I1
sS'beside'
p588
I2
sS'bosoms'
p589
I2
sS"th'"
p590
I1
sS'several'
p591
I3
sS'grows'
p592
I1
sS'entitled'
p593
I3
sS'lusty'
p594
I2
sS'fairly'
p595
I2
sS'tops'
p596
I1
sS'evil'
p597
I2
sS'hand'
p598
I1
sS'delight'
p599
I2
sS'supposing'
p600
I3
sS'dark'
p601
I1
sS'bequest'
p602
I2
sS'blamed'
p603
I1
sS'thoughts'
p604
I1
sS'censures'
p605
I2
sS'kept'
p606
I1
sS'thy'
p607
I1
sS'singleness'
p608
I3
sS'sweetness'
p609
I2
sS'possessed'
p610
I2
sS'humble'
p611
I2
sS'inherit'
p612
I3
sS'ocean'
p613
I2
sS'ragged'
p614
I2
sS'fulness'
p615
I2
sS'greatest'
p616
I1
sS'incapable'
p617
I4
sS'mother'
p618
I2
sS'hearts'
p619
I1
sS'the'
p620
I1
sS'cure'
p621
I1
sS'yours'
p622
I1
sS'left'
p623
I1
sS'reeks'
p624
I1
sS'just'
p625
I1
sS'wasteful'
p626
I2
sS'yea'
p627
I1
sS"poet's"
p628
I2
sS'unfair'
p629
I2
sS'repose'
p630
I2
sS'verses'
p631
I2
sS'maketh'
p632
I2
sS'thanks'
p633
I1
sS'swears'
p634
I1
sS'prognosticate'
p635
I4
sS'plight'
p636
I1
sS'yet'
p637
I1
sS'succeeding'
p638
I3
sS'vices'
p639
I2
sS'adding'
p640
I2
sS'dearer'
p641
I2
sS'compeers'
p642
I2
sS'had'
p643
I1
sS'counted'
p644
I2
sS'alchemy'
p645
I3
sS'belongs'
p646
I2
sS'beloved'
p647
I4
sS'prison'
p648
I2
sS'hap'
p649
I1
sS'pitiful'
p650
I3
sS'save'
p651
I1
sS'gave'
p652
I1
sS"others'"
p653
I2
sS'dignity'
p654
I3
sS'spacious'
p655
I2
sS'reviewest'
p656
I3
sS'birth'
p657
I1
sS'wanting'
p658
I2
sS'shadow'
p659
I2
sS'dreams'
p660
I1
sS"picture's"
p661
I2
sS'desire'
p662
I2
sS'brought'
p663
I1
sS"feed'st"
p664
I1
sS'gift'
p665
I1
sS'new-found'
p666
I2
sS'vilest'
p667
I2
sS'offices'
p668
I3
sS'night'
p669
I1
sS'hung'
p670
I1
sS'antique'
p671
I2
sS'right'
p672
I1
sS'old'
p673
I1
sS'flatter'
p674
I2
sS"war's"
p675
I1
sS'deaf'
p676
I1
sS'short-numbered'
p677
I3
sS'dead'
p678
I1
sS'born'
p679
I1
sS'dear'
p680
I1
sS'altered'
p681
I2
sS'bore'
p682
I1
sS'guess'
p683
I1
sS'creep'
p684
I1
sS'enemies'
p685
I3
sS'for'
p686
I1
sS"bosom's"
p687
I2
sS'rehearse'
p688
I2
sS'comments'
p689
I2
sS'foe'
p690
I1
sS'denied'
p691
I2
sS'bold'
p692
I1
sS'burn'
p693
I1
sS'divining'
p694
I3
sS'shifting'
p695
I2
sS'losing'
p696
I4
sS'taker'
p697
I2
sS'peep'
p698
I1
sS'disdains'
p699
I2
sS'shaken'
p700
I2
sS'proceed'
p701
I2
sS'theirs'
p702
I1
sS'coral'
p703
I2
sS'haply'
p704
I2
sS'frailer'
p705
I2
sS'o'
p706
I1
sS'costs'
p707
I1
sS'despair'
p708
I2
sS'guilty'
p709
I2
sS'cherish'
p710
I2
sS'commit'
p711
I2
sS'lacked'
p712
I1
sS'bath'
p713
I1
sS'raised'
p714
I1
sS'faint'
p715
I1
sS'presence'
p716
I2
sS'civil'
p717
I2
sS'pays'
p718
I1
sS'nought'
p719
I1
sS'bound'
p720
I1
sS'son'
p721
I1
sS'down'
p722
I1
sS'lies'
p723
I1
sS'refined'
p724
I2
sS"pour'st"
p725
I1
sS'methods'
p726
I2
sS'strangely'
p727
I2
sS'despised'
p728
I2
sS'jealousy'
p729
I3
sS'sovereign'
p730
I3
sS'fight'
p731
I1
sS'virgin'
p732
I2
sS'way'
p733
I1
sS'call'
p734
I1
sS'was'
p735
I1
sS'war'
p736
I1
sS'happy'
p737
I2
sS'head'
p738
I1
sS'faring'
p739
I2
sS'form'
p740
I1
sS'statute'
p741
I2
sS'crown'
p742
I1
sS'becoming'
p743
I3
sS'forgetful'
p744
I3
sS'fore'
p745
I1
sS'back'
p746
I1
sS'heinous'
p747
I2
sS'pricked'
p748
I1
sS'heat'
p749
I1
sS'hear'
p750
I1
sS'odours'
p751
I2
sS'learned'
p752
I2
sS'astonished'
p753
I3
sS'blindness'
p754
I2
sS'removed'
p755
I2
sS'true'
p756
I1
sS'deepest'
p757
I2
sS'absent'
p758
I2
sS'lilies'
p759
I2
sS'captive'
p760
I2
sS'extremity'
p761
I4
sS"for't"
p762
I1
sS'bids'
p763
I1
sS'until'
p764
I2
sS'crystal'
p765
I2
sS'unfathered'
p766
I3
sS'adore'
p767
I2
sS'anew'
p768
I2
sS'engraft'
p769
I2
sS'bide'
p770
I1
sS'latch'
p771
I1
sS'trim'
p772
I1
sS'disgrace'
p773
I2
sS'ornaments'
p774
I3
sS'fury'
p775
I2
sS'sinful'
p776
I2
sS'steep-up'
p777
I2
sS"beauty's"
p778
I2
sS'hungry'
p779
I2
sS'huswife'
p780
I2
sS'sometime'
p781
I2
sS'subsist'
p782
I2
sS'shines'
p783
I1
sS'face'
p784
I1
sS'injurious'
p785
I4
sS'posting'
p786
I2
sS'willingly'
p787
I3
sS'looked'
p788
I1
sS'dying'
p789
I2
sS'no'
p790
I2
sS'excel'
p791
I2
sS"lov'st"
p792
I1
sS'actor'
p793
I2
sS'thriftless'
p794
I2
sS'despising'
p795
I3
sS'falsely'
p796
I2
sS'papers'
p797
I2
sS'tie'
p798
I1
sS'vanished'
p799
I2
sS'smell'
p800
I1
sS'eternity'
p801
I4
sS'picture'
p802
I2
sS'intend'
p803
I2
sS'phoenix'
p804
I2
sS'pyramids'
p805
I3
sS'dies'
p806
I1
sS'welcome'
p807
I2
sS'first-born'
p808
I2
sS'present-absent'
p809
I4
sS'fell'
p810
I1
sS'reign'
p811
I1
sS'rolling'
p812
I2
sS'pierced'
p813
I1
sS'seeing'
p814
I2
sS'died'
p815
I1
sS'wrackful'
p816
I2
sS'to-day'
p817
I1
sS'longer'
p818
I2
sS'blushing'
p819
I2
sS'daily'
p820
I2
sS'cheater'
p821
I2
sS'teeth'
p822
I1
sS"dian's"
p823
I2
sS'laws'
p824
I1
sS'restored'
p825
I2
sS'songs'
p826
I1
sS'whoever'
p827
I3
sS'varying'
p828
I3
sS"perceiv'st"
p829
I2
sS'souls'
p830
I1
sS'invent'
p831
I2
sS'engrafted'
p832
I3
sS'leads'
p833
I1
sS'continual'
p834
I4
sS'slandered'
p835
I2
sS'idolatry'
p836
I4
sS'abundant'
p837
I3
sS'retention'
p838
I3
sS'mounted'
p839
I2
sS'praises'
p840
I2
sS'father'
p841
I2
sS'confounds'
p842
I2
sS'vex'
p843
I1
sS'charge'
p844
I1
sS'praised'
p845
I1
sS'suffered'
p846
I2
sS'addeth'
p847
I2
sS'furrows'
p848
I2
sS'abundance'
p849
I3
sS'strumpeted'
p850
I3
sS'string'
p851
I1
sS'advantage'
p852
I3
sS'drudge'
p853
I1
sS'fleece'
p854
I1
sS'votary'
p855
I3
sS'mourn'
p856
I1
sS'advised'
p857
I2
sS'word'
p858
I1
sS'trouble'
p859
I2
sS'feeble'
p860
I2
sS'cool'
p861
I1
sS"soul's"
p862
I1
sS'perceived'
p863
I2
sS'clouds'
p864
I1
sS'level'
p865
I2
sS'did'
p866
I1
sS'die'
p867
I1
sS'dig'
p868
I1
sS"best'"
p869
I1
sS'leave'
p870
I1
sS'excellence'
p871
I3
sS'burned'
p872
I1
sS'quick'
p873
I1
sS'prevent'
p874
I2
sS'brave'
p875
I1
sS'says'
p876
I1
sS'fearing'
p877
I2
sS"offender's"
p878
I3
sS'double-vantage'
p879
I4
sS'sigh'
p880
I1
sS'wherefore'
p881
I2
sS'cost'
p882
I1
sS'patient'
p883
I2
sS'fear'
p884
I1
sS'indigest'
p885
I3
sS'hymn'
p886
I1
sS"fleet'st"
p887
I1
sS'curse'
p888
I1
sS'appear'
p889
I2
sS'assistance'
p890
I3
sS'contracted'
p891
I3
sS'favour'
p892
I2
sS'pleased'
p893
I1
sS'suspect'
p894
I2
sS'goes'
p895
I1
sS'pine'
p896
I1
sS'appeal'
p897
I2
sS'filled'
p898
I1
sS"april's"
p899
I2
sS'prescriptions'
p900
I3
sS'wail'
p901
I1
sS'honour'
p902
I1
sS'clerk'
p903
I1
sS'water'
p904
I2
sS'entertain'
p905
I3
sS'alone'
p906
I2
sS'appears'
p907
I2
sS'change'
p908
I1
sS'blunter'
p909
I2
sS'boy'
p910
I1
sS'boast'
p911
I1
sS'root'
p912
I1
sS'wherever'
p913
I3
sS'bow'
p914
I1
sS'spheres'
p915
I1
sS'shook'
p916
I1
sS'recounting'
p917
I3
sS'stained'
p918
I1
sS'love'
p919
I1
sS'humour'
p920
I1
sS'tempteth'
p921
I2
sS'bloody'
p922
I2
sS'withal'
p923
I2
sS'betraying'
p924
I3
sS'surmount'
p925
I2
sS'swallowed'
p926
I2
sS"suff'ring"
p927
I2
sS"o'erworn"
p928
I2
sS'voices'
p929
I2
sS'wealth'
p930
I1
sS'prove'
p931
I1
sS'sake'
p932
I3
sS'confounded'
p933
I3
sS'angry'
p934
I2
sS'give'
p935
I1
sS'only'
p936
I2
sS"batt'ring"
p937
I2
sS'wrongs'
p938
I1
sS'live'
p939
I1
sS'wood'
p940
I1
sS'prey'
p941
I1
sS'memory'
p942
I3
sS'scope'
p943
I1
sS'loving'
p944
I2
sS"love's"
p945
I1
sS'fierce'
p946
I1
sS'riot'
p947
I2
sS'sessions'
p948
I2
sS'towers'
p949
I2
sS'neglected'
p950
I3
sS'acceptable'
p951
I4
sS"strength's"
p952
I1
sS'drown'
p953
I1
sS'everywhere'
p954
I4
sS'virtue'
p955
I2
sS'robe'
p956
I1
sS'epitaph'
p957
I3
sS'fly'
p958
I1
sS'impair'
p959
I2
sS'sheds'
p960
I1
sS'car'
p961
I1
sS'soul'
p962
I1
sS'purge'
p963
I1
sS'hardest'
p964
I2
sS'sour'
p965
I1
sS'can'
p966
I1
sS'growing'
p967
I1
sS'making'
p968
I2
sS"prevent'st"
p969
I2
sS'deceased'
p970
I2
sS'breeds'
p971
I1
sS'heart'
p972
I1
sS'dedicated'
p973
I1
sS"servant's"
p974
I2
sS'want'
p975
I1
sS'figure'
p976
I2
sS'predict'
p977
I2
sS'sense'
p978
I1
sS'distillation'
p979
I4
sS'heard'
p980
I1
sS'critic'
p981
I2
sS'purity'
p982
I3
sS'hides'
p983
I1
sS"mak'st"
p984
I1
sS'provoke'
p985
I2
sS'stole'
p986
I1
sS'bereft'
p987
I2
sS'churls'
p988
I1
sS'winter'
p989
I2
sS'dress'
p990
I1
sS'divided'
p991
I3
sS'undivided'
p992
I4
sS'vainly'
p993
I2
sS'trophies'
p994
I2
sS"lour'st"
p995
I1
sS'write'
p996
I1
sS'till'
p997
I1
sS'sword'
p998
I1
sS'husbandry'
p999
I3
sS'sworn'
p1000
I1
sS"eye's"
p1001
I1
sS'map'
p1002
I1
sS'mar'
p1003
I1
sS'where-through'
p1004
I2
sS'all-tyrant'
p1005
I3
sS'may'
p1006
I1
sS'fed'
p1007
I1
sS'spot'
p1008
I1
sS'siren'
p1009
I2
sS'mad'
p1010
I1
sS'date'
p1011
I1
sS'end'
p1012
I1
sS'hateth'
p1013
I2
sS'flourish'
p1014
I2
sS'grow'
p1015
I1
sS'man'
p1016
I1
sS'temperate'
p1017
I3
sS'remember'
p1018
I3
sS'liquid'
p1019
I2
sS'candles'
p1020
I2
sS'rather'
p1021
I2
sS'so'
p1022
I1
sS'silence'
p1023
I2
sS'deceive'
p1024
I2
sS'thorns'
p1025
I1
sS'tall'
p1026
I1
sS'increase'
p1027
I2
sS'forced'
p1028
I1
sS'serving'
p1029
I2
sS'receivest'
p1030
I3
sS'indeed'
p1031
I2
sS'forfeit'
p1032
I2
sS'wishing'
p1033
I2
sS'years'
p1034
I1
sS'course'
p1035
I1
sS'pitch'
p1036
I1
sS'cold'
p1037
I1
sS'still'
p1038
I1
sS'birds'
p1039
I1
sS'trifle'
p1040
I2
sS'limbs'
p1041
I1
sS'derive'
p1042
I2
sS'thank'
p1043
I1
sS'faults'
p1044
I1
sS'muses'
p1045
I2
sS'chips'
p1046
I1
sS'inferior'
p1047
I4
sS'curls'
p1048
I1
sS'maid'
p1049
I1
sS'tillage'
p1050
I2
sS"play'st"
p1051
I1
sS'policy'
p1052
I3
sS"stol'n"
p1053
I1
sS'main'
p1054
I1
sS'into'
p1055
I2
sS'correspondence'
p1056
I4
sS'closure'
p1057
I2
sS'truest'
p1058
I2
sS'equipage'
p1059
I3
sS'thereby'
p1060
I2
sS'sooner'
p1061
I2
sS'delighted'
p1062
I3
sS'records'
p1063
I2
sS'half'
p1064
I1
sS'not'
p1065
I1
sS'now'
p1066
I1
sS'twilight'
p1067
I2
sS'nor'
p1068
I1
sS'wont'
p1069
I1
sS'term'
p1070
I1
sS'name'
p1071
I1
sS'servant'
p1072
I2
sS'uncertain'
p1073
I3
sS'drop'
p1074
I1
sS'breach'
p1075
I1
sS'veins'
p1076
I1
sS'orphans'
p1077
I2
sS'surfeit'
p1078
I2
sS"another's"
p1079
I3
sS'receipt'
p1080
I2
sS'richly'
p1081
I2
sS'fever'
p1082
I2
sS'farewell'
p1083
I2
sS'seeting'
p1084
I2
sS'year'
p1085
I1
sS'hymns'
p1086
I1
sS'living'
p1087
I2
sS'shown'
p1088
I1
sS'mouths'
p1089
I1
sS'space'
p1090
I1
sS'profit'
p1091
I4
sS'confine'
p1092
I2
sS'abide'
p1093
I2
sS'looking'
p1094
I2
sS'boundless'
p1095
I2
sS'grecian'
p1096
I2
sS'receiving'
p1097
I3
sS'correct'
p1098
I2
sS'shows'
p1099
I1
sS'worthiness'
p1100
I3
sS'siege'
p1101
I1
sS'cars'
p1102
I1
sS'sweet-seasoned'
p1103
I3
sS'quite'
p1104
I1
sS'rebel'
p1105
I4
sS'plea'
p1106
I1
sS"feel'st"
p1107
I1
sS'care'
p1108
I1
sS'advance'
p1109
I2
sS"age's"
p1110
I2
sS'embassage'
p1111
I3
sS'contented'
p1112
I3
sS"wand'rest"
p1113
I2
sS'honest'
p1114
I2
sS'motion'
p1115
I2
sS'thing'
p1116
I1
sS'thine'
p1117
I1
sS'place'
p1118
I1
sS'recompense'
p1119
I3
sS'sufferance'
p1120
I3
sS'widow'
p1121
I2
sS'warning'
p1122
I2
sS'think'
p1123
I1
sS'frequent'
p1124
I2
sS'first'
p1125
I1
sS'blind'
p1126
I1
sS'mayst'
p1127
I1
sS'waves'
p1128
I1
sS'teachest'
p1129
I2
sS'nativity'
p1130
I4
sS'consecrate'
p1131
I3
sS'chide'
p1132
I1
sS'directly'
p1133
I3
sS'habitation'
p1134
I4
sS'carry'
p1135
I2
sS'ill-used'
p1136
I2
sS'sounds'
p1137
I1
sS'tame'
p1138
I1
sS'open'
p1139
I2
sS'affords'
p1140
I2
sS'millions'
p1141
I2
sS'interchange'
p1142
I3
sS'little'
p1143
I2
sS'checked'
p1144
I1
sS'silent'
p1145
I2
sS'breed'
p1146
I1
sS'fiery'
p1147
I3
sS'bounty'
p1148
I2
sS'white'
p1149
I1
sS"tiger's"
p1150
I2
sS'speaking'
p1151
I2
sS'gives'
p1152
I1
sS'hue'
p1153
I1
sS'eyes'
p1154
I1
sS'pomp'
p1155
I1
sS'blazon'
p1156
I2
sS'that'
p1157
I1
sS'brains'
p1158
I1
sS"men's"
p1159
I1
sS'proving'
p1160
I2
sS'hurt'
p1161
I1
sS'alas'
p1162
I2
sS'eyed'
p1163
I1
sS'girded'
p1164
I2
sS'reproving'
p1165
I3
sS'flowers'
p1166
I2
sS'than'
p1167
I1
sS"stick'st"
p1168
I1
sS'wide'
p1169
I1
sS'wert'
p1170
I1
sS'require'
p1171
I2
sS'folly'
p1172
I2
sS'transferred'
p1173
I2
sS'were'
p1174
I1
sS'carcanet'
p1175
I3
sS'and'
p1176
I1
sS'desperate'
p1177
I3
sS'angel'
p1178
I2
sS'slay'
p1179
I1
sS'correction'
p1180
I3
sS'confessed'
p1181
I2
sS'turned'
p1182
I1
sS'argument'
p1183
I3
sS'jewels'
p1184
I2
sS'sad'
p1185
I1
sS'entombed'
p1186
I2
sS'say'
p1187
I1
sS'perfumes'
p1188
I2
sS'buried'
p1189
I1
sS'foiled'
p1190
I1
sS'anger'
p1191
I2
sS'sap'
p1192
I1
sS'pry'
p1193
I1
sS'any'
p1194
I2
sS'jacks'
p1195
I1
sS'sport'
p1196
I1
sS'defaced'
p1197
I1
sS'mourners'
p1198
I2
sS'aside'
p1199
I2
sS'note'
p1200
I1
sS'wretch'
p1201
I1
sS'take'
p1202
I1
sS'resembling'
p1203
I3
sS'haste'
p1204
I1
sS'blunt'
p1205
I1
sS'flattered'
p1206
I2
sS'urge'
p1207
I1
sS'begin'
p1208
I2
sS'sure'
p1209
I1
sS'pain'
p1210
I1
sS'busy'
p1211
I2
sS'tallies'
p1212
I2
sS'knew'
p1213
I1
sS'clearer'
p1214
I2
sS'paid'
p1215
I1
sS'remover'
p1216
I3
sS'unkindness'
p1217
I3
sS'staineth'
p1218
I2
sS'flatterer'
p1219
I3
sS'tract'
p1220
I1
sS'palate'
p1221
I2
sS'winters'
p1222
I2
sS'garments'
p1223
I2
sS'proud'
p1224
I1
sS"travel's"
p1225
I2
sS'wing'
p1226
I1
sS"perfect'st"
p1227
I2
sS'sunset'
p1228
I2
sS'amis'
p1229
I2
sS'glutton'
p1230
I2
sS'perfumed'
p1231
I2
sS'sourest'
p1232
I2
sS'buriest'
p1233
I2
sS'shop'
p1234
I1
sS'show'
p1235
I1
sS'cheap'
p1236
I1
sS'merit'
p1237
I2
sS'trespass'
p1238
I2
sS'bright'
p1239
I1
sS'untold'
p1240
I2
sS'ground'
p1241
I1
sS'slow'
p1242
I1
sS'woos'
p1243
I1
sS'unkind'
p1244
I2
sS'stormy'
p1245
I2
sS'title'
p1246
I2
sS'treasure'
p1247
I2
sS'robs'
p1248
I1
sS'cloak'
p1249
I1
sS'crime'
p1250
I1
sS'tears'
p1251
I1
sS'going'
p1252
I2
sS'black'
p1253
I1
sS'partake'
p1254
I2
sS'stain'
p1255
I1
sS'wilfully'
p1256
I3
sS'hindmost'
p1257
I2
sS'get'
p1258
I1
sS"'tis"
p1259
I1
sS'limbecks'
p1260
I2
sS'truly'
p1261
I2
sS'cannot'
p1262
I2
sS'nearly'
p1263
I2
sS'dye'
p1264
I1
sS'prime'
p1265
I1
sS'seldom'
p1266
I2
sS'yield'
p1267
I1
sS'morning'
p1268
I2
sS'naked'
p1269
I2
sS'miles'
p1270
I1
sS'where'
p1271
I1
sS'husband'
p1272
I2
sS"monarch's"
p1273
I2
sS'committed'
p1274
I1
sS'up'
p1275
I1
sS"fortune's"
p1276
I2
sS'asleep'
p1277
I2
sS'expiate'
p1278
I3
sS'successive'
p1279
I3
sS'seal'
p1280
I1
sS'salutation'
p1281
I4
sS'ruined'
p1282
I1
sS'purest'
p1283
I2
sS'wonder'
p1284
I2
sS'invoked'
p1285
I2
sS'tongue-tied'
p1286
I2
sS'compounds'
p1287
I2
sS'crooked'
p1288
I2
sS'review'
p1289
I2
sS'amen'
p1290
I2
sS'ornament'
p1291
I3
sS'behind'
p1292
I2
sS'departest'
p1293
I2
sS'complexion'
p1294
I3
sS'sable'
p1295
I2
sS'import'
p1296
I2
sS'enjoys'
p1297
I2
sS'presage'
p1298
I2
sS'untainted'
p1299
I3
sS'forsake'
p1300
I2
sS'lays'
p1301
I1
sS'discloses'
p1302
I3
sS'pluck'
p1303
I1
sS'blame'
p1304
I1
sS'countenance'
p1305
I3
sS'reigns'
p1306
I1
sS'profitless'
p1307
I3
sS'come'
p1308
I1
sS'grieved'
p1309
I1
sS'dates'
p1310
I1
sS'many'
p1311
I2
sS'region'
p1312
I2
sS'quiet'
p1313
I2
sS'dwellers'
p1314
I2
sS'awards'
p1315
I2
sS"sea's"
p1316
I1
sS'duty'
p1317
I2
sS'among'
p1318
I2
sS'unthrifts'
p1319
I2
sS'madness'
p1320
I2
sS'spoil'
p1321
I1
sS'unthrifty'
p1322
I3
sS'lace'
p1323
I1
sS'swerving'
p1324
I2
sS'dispatch'
p1325
I2
sS'slain'
p1326
I1
sS'stretched'
p1327
I2
sS'learning'
p1328
I2
sS'proved'
p1329
I1
sS'hounds'
p1330
I1
sS'boat'
p1331
I1
sS'doctor-like'
p1332
I3
sS'arts'
p1333
I1
sS'self-doing'
p1334
I3
sS'west'
p1335
I1
sS'dross'
p1336
I1
sS'mark'
p1337
I1
sS'breath'
p1338
I1
sS'subscribes'
p1339
I2
sS"self's"
p1340
I1
sS'mars'
p1341
I1
sS'informer'
p1342
I3
sS'straying'
p1343
I2
sS'robbed'
p1344
I1
sS'thousand'
p1345
I2
sS'blessing'
p1346
I2
sS'nobler'
p1347
I1
sS'wake'
p1348
I1
sS'external'
p1349
I3
sS'frantic-mad'
p1350
I3
sS'masonry'
p1351
I3
sS'careful'
p1352
I2
sS'deceivest'
p1353
I3
sS'those'
p1354
I1
sS'case'
p1355
I1
sS'clears'
p1356
I1
sS'profane'
p1357
I2
sS'scarlet'
p1358
I2
sS'these'
p1359
I1
sS'sheaves'
p1360
I1
sS'compile'
p1361
I2
sS'cast'
p1362
I1
sS'proves'
p1363
I1
sS'cancelled'
p1364
I2
sS'situation'
p1365
I4
sS'endured'
p1366
I2
sS'fool'
p1367
I1
sS'endowed'
p1368
I2
sS'brow'
p1369
I1
sS'gluttoning'
p1370
I3
sS'middle'
p1371
I2
sS'limping'
p1372
I2
sS'return'
p1373
I2
sS'prayers'
p1374
I2
sS'fame'
p1375
I1
sS'different'
p1376
I3
sS'harsh'
p1377
I1
sS"tyrants'"
p1378
I2
sS'strains'
p1379
I1
sS'pay'
p1380
I1
sS'same'
p1381
I1
sS'check'
p1382
I1
sS'shifts'
p1383
I1
sS'distilled'
p1384
I2
sS'figures'
p1385
I2
sS'ladies'
p1386
I2
sS"'truth"
p1387
I1
sS'wires'
p1388
I1
sS'faculty'
p1389
I3
sS'sickness'
p1390
I2
sS'tyrannous'
p1391
I3
sS'defy'
p1392
I2
sS'weed'
p1393
I1
sS'fruit'
p1394
I1
sS'scorned'
p1395
I1
sS'conquered'
p1396
I2
sS'extern'
p1397
I2
sS'changing'
p1398
I2
sS'weep'
p1399
I1
sS"slander's"
p1400
I2
sS'vowed'
p1401
I1
sS'vantage'
p1402
I2
sS'dear-purchased'
p1403
I3
sS'throned'
p1404
I1
sS'random'
p1405
I2
sS'vacant'
p1406
I2
sS'without'
p1407
I2
sS'relief'
p1408
I2
sS'charged'
p1409
I1
sS'distills'
p1410
I2
sS'summer'
p1411
I2
sS'ransoms'
p1412
I2
sS'being'
p1413
I2
sS'when'
p1414
I1
sS'compound'
p1415
I2
sS'shamefully'
p1416
I3
sS'rest'
p1417
I1
sS'imprint'
p1418
I2
sS'bareness'
p1419
I2
sS'cease'
p1420
I1
sS'disperse'
p1421
I2
sS'aspect'
p1422
I2
sS'touch'
p1423
I1
sS'speed'
p1424
I1
sS'guides'
p1425
I1
sS'afterwards'
p1426
I3
sS'blow'
p1427
I1
sS'blot'
p1428
I1
sS'unwooed'
p1429
I2
sS'charactered'
p1430
I3
sS'thinking'
p1431
I2
sS'rose'
p1432
I1
sS'seems'
p1433
I1
sS"summer's"
p1434
I2
sS"summers'"
p1435
I2
sS'verse'
p1436
I1
sS'suppressed'
p1437
I2
sS'worthier'
p1438
I2
sS'throw'
p1439
I1
sS'dully'
p1440
I2
sS'bond'
p1441
I1
sS'valley-fountain'
p1442
I4
sS'struck'
p1443
I1
sS'kingdom'
p1444
I2
sS'frown'
p1445
I1
sS'kills'
p1446
I1
sS'read'
p1447
I1
sS'offence'
p1448
I2
sS'sums'
p1449
I1
sS'dart'
p1450
I1
sS'basest'
p1451
I2
sS'traffic'
p1452
I2
sS'confined'
p1453
I1
sS'world'
p1454
I1
sS'reap'
p1455
I1
sS'dare'
p1456
I1
sS'acquainted'
p1457
I3
sS'fortune'
p1458
I2
sS'achieve'
p1459
I2
sS'miracle'
p1460
I3
sS'benefit'
p1461
I3
sS"wretch's"
p1462
I2
sS'either'
p1463
I2
sS'robbery'
p1464
I3
sS'offenders'
p1465
I3
sS'warrantise'
p1466
I3
sS'tombed'
p1467
I1
sS'fulfil'
p1468
I2
sS'falsehood'
p1469
I2
sS'kings'
p1470
I1
sS'images'
p1471
I3
sS'divine'
p1472
I2
sS'thinks'
p1473
I1
sS'gross'
p1474
I1
sS'courses'
p1475
I2
sS'noon'
p1476
I1
sS'lend'
p1477
I1
sS'stops'
p1478
I1
sS'moon'
p1479
I1
sS'forgoing'
p1480
I3
sS'expressing'
p1481
I3
sS'self-loving'
p1482
I3
sS'knife'
p1483
I1
sS'destroys'
p1484
I2
sS'shorn'
p1485
I1
sS'power'
p1486
I2
sS'seconds'
p1487
I2
sS'blest'
p1488
I1
sS'strained'
p1489
I1
sS'olives'
p1490
I2
sS'forgetfulness'
p1491
I4
sS'broken'
p1492
I2
sS"o'er-green"
p1493
I2
sS'assemble'
p1494
I3
sS'feeds'
p1495
I1
sS'death-bed'
p1496
I2
sS'on'
p1497
I1
sS'stone'
p1498
I1
sS'subdued'
p1499
I2
sS'zealous'
p1500
I2
sS'of'
p1501
I1
sS'choirs'
p1502
I2
sS'feil'
p1503
I1
sS'whence'
p1504
I1
sS'journey'
p1505
I2
sS'wolf'
p1506
I1
sS'stand'
p1507
I1
sS'act'
p1508
I1
sS'mixed'
p1509
I1
sS'lofty'
p1510
I2
sS'or'
p1511
I1
sS'imitated'
p1512
I4
sS'widowed'
p1513
I2
sS'long-lived'
p1514
I2
sS'burning'
p1515
I2
sS"put'st"
p1516
I1
sS'distempered'
p1517
I3
sS'image'
p1518
I2
sS'blessed'
p1519
I2
sS'rising'
p1520
I2
sS'lively'
p1521
I2
sS'dreaming'
p1522
I2
sS'blesses'
p1523
I2
sS'your'
p1524
I1
sS'buds'
p1525
I1
sS"oaths'"
p1526
I1
sS'fast'
p1527
I1
sS'her'
p1528
I1
sS'there'
p1529
I1
sS'disposed'
p1530
I2
sS'sides'
p1531
I1
sS'stealth'
p1532
I1
sS"whate'er"
p1533
I2
sS"seasons'"
p1534
I2
sS'stars'
p1535
I1
sS'jaws'
p1536
I1
sS'groan'
p1537
I1
sS'enough'
p1538
I2
sS'petty'
p1539
I2
sS"dyer's"
p1540
I2
sS'strikes'
p1541
I1
sS'meetness'
p1542
I2
sS'suffers'
p1543
I2
sS'with'
p1544
I1
sS'happies'
p1545
I2
sS'abused'
p1546
I2
sS'applying'
p1547
I3
sS'rage'
p1548
I1
sS'niggarding'
p1549
I3
sS'self-same'
p1550
I2
sS'impute'
p1551
I2
sS'abuses'
p1552
I3
sS'strongly'
p1553
I2
sS'gone'
p1554
I1
sS'intents'
p1555
I2
sS'celestial'
p1556
I3
sS'fist'
p1557
I1
sS'taste'
p1558
I1
sS'ah'
p1559
I1
sS'accents'
p1560
I2
sS'stealing'
p1561
I2
sS'am'
p1562
I1
sS'deep'
p1563
I1
sS'an'
p1564
I1
sS'toiled'
p1565
I1
sS'excusing'
p1566
I3
sS'deem'
p1567
I1
sS'carved'
p1568
I1
sS'pen'
p1569
I1
sS'ay'
p1570
I1
sS'spends'
p1571
I1
sS'fill'
p1572
I1
sS'again'
p1573
I2
sS'proudly'
p1574
I2
sS"judgment's"
p1575
I2
sS'deserve'
p1576
I2
sS'ever-fixed'
p1577
I3
sS"helen's"
p1578
I2
sS'repent'
p1579
I2
sS'incertainties'
p1580
I4
sS'roses'
p1581
I2
sS"wand'ring"
p1582
I2
sS'you'
p1583
I1
sS'abysm'
p1584
I2
sS'poor'
p1585
I1
sS'time'
p1586
I1
sS'gifts'
p1587
I1
sS'flower'
p1588
I2
sS'suited'
p1589
I2
sS'brass'
p1590
I1
sS'sequent'
p1591
I2
sS'building'
p1592
I2
sS'backward'
p1593
I2
sS'remote'
p1594
I2
sS'calls'
p1595
I1
sS'wife'
p1596
I1
sS"life's"
p1597
I1
sS'dyed'
p1598
I1
sS'repay'
p1599
I2
sS'hugely'
p1600
I2
sS'treason'
p1601
I2
sS'apparel'
p1602
I3
sS'tanned'
p1603
I1
sS'unset'
p1604
I2
sS'all'
p1605
I1
sS'consider'
p1606
I3
sS'pointing'
p1607
I2
sS'suns'
p1608
I1
sS'forbidden'
p1609
I3
sS'lack'
p1610
I1
sS'neigh'
p1611
I1
sS'worms'
p1612
I1
sS'importune'
p1613
I3
sS'seals'
p1614
I1
sS'sunk'
p1615
I1
sS"'gainst"
p1616
I1
sS'forged'
p1617
I1
sS'welfare'
p1618
I2
sS'follow'
p1619
I2
sS'meditation'
p1620
I4
sS'faster'
p1621
I2
sS'religious'
p1622
I3
sS"gild'st"
p1623
I1
sS'wakened'
p1624
I2
sS'wanton'
p1625
I2
sS'homage'
p1626
I2
sS'sparkling'
p1627
I2
sS'former'
p1628
I4
sS"keep'st"
p1629
I1
sS'to'
p1630
I1
sS'present'
p1631
I4
sS'dressing'
p1632
I2
sS'nurseth'
p1633
I2
sS'hideous'
p1634
I3
sS'weeks'
p1635
I1
sS'paying'
p1636
I1
sS'woman'
p1637
I2
sS'returned'
p1638
I2
sS'song'
p1639
I1
sS'very'
p1640
I2
sS'coloured'
p1641
I1
sS'oblation'
p1642
I3
sS'medicine'
p1643
I3
sS'worst'
p1644
I1
sS'minded'
p1645
I2
sS'fall'
p1646
I1
sS'hems'
p1647
I1
sS'difference'
p1648
I3
sS'vouchsafe'
p1649
I2
sS'heaven'
p1650
I2
sS'list'
p1651
I1
sS'silvered'
p1652
I22
sS'fearful'
p1653
I2
sS'small'
p1654
I1
sS"t'"
p1655
I0
sS'tender'
p1656
I4
sS"i'll"
p1657
I1
sS'quicker'
p1658
I2
sS'ten'
p1659
I1
sS'outworn'
p1660
I2
sS'past'
p1661
I1
sS'go'
p1662
I1
sS'titles'
p1663
I2
sS'perspective'
p1664
I3
sS'pass'
p1665
I1
sS'savage'
p1666
I2
sS'affable'
p1667
I3
sS'befriends'
p1668
I2
sS'crests'
p1669
I1
sS'creatures'
p1670
I2
sS'conscience'
p1671
I2
sS'gazers'
p1672
I2
sS'what'
p1673
I1
sS'defence'
p1674
I2
sS'darkness'
p1675
I2
sS'sweetly'
p1676
I2
sS'clock'
p1677
I1
sS'sun'
p1678
I1
sS'sum'
p1679
I1
sS'brief'
p1680
I1
sS'prevailed'
p1681
I2
sS'foison'
p1682
I2
sS'ill-wresting'
p1683
I3
sS'nurse'
p1684
I1
sS'shun'
p1685
I1
sS'public'
p1686
I2
sS'womb'
p1687
I1
sS'quenched'
p1688
I1
sS'full'
p1689
I1
sS'ranged'
p1690
I1
sS'love-suit'
p1691
I2
sS'answers'
p1692
I2
sS'revenge'
p1693
I2
sS'hours'
p1694
I1
sS'ensconce'
p1695
I2
sS'excess'
p1696
I2
sS'hast'
p1697
I1
sS'depend'
p1698
I2
sS'strong'
p1699
I1
sS'table'
p1700
I2
sS'enmity'
p1701
I3
sS'losses'
p1702
I1
sS'dearths'
p1703
I1
sS'reason'
p1704
I2
sS'simply'
p1705
I2
sS'action'
p1706
I2
sS'steepy'
p1707
I2
sS'extant'
p1708
I2
sS"day's"
p1709
I1
sS'depart'
p1710
I2
sS'impiety'
p1711
I4
sS'tendered'
p1712
I2
sS'sealed'
p1713
I1
sS"lion's"
p1714
I2
sS'estimate'
p1715
I3
sS'unthrift'
p1716
I2
sS'self-love'
p1717
I2
sS'eye'
p1718
I1
sS'takes'
p1719
I1
sS'cherubins'
p1720
I3
sS'contains'
p1721
I2
sS'two'
p1722
I1
sS'pearl'
p1723
I1
sS'morn'
p1724
I1
sS'soil'
p1725
I1
sS'taken'
p1726
I2
sS'injury'
p1727
I3
sS'more'
p1728
I1
sS'horses'
p1729
I2
sS'wretched'
p1730
I2
sS'unlearned'
p1731
I3
sS'knows'
p1732
I1
sS'delves'
p1733
I1
sS"ow'st"
p1734
I1
sS'foregone'
p1735
I1
sS'spoils'
p1736
I1
sS'excuse'
p1737
I2
sS'lameness'
p1738
I2
sS'controlling'
p1739
I3
sS'broke'
p1740
I1
sS'graven'
p1741
I2
sS'known'
p1742
I1
sS'doom'
p1743
I1
sS'glad'
p1744
I1
sS'cunning'
p1745
I2
sS'commanded'
p1746
I3
sS'over-goes'
p1747
I3
sS'none'
p1748
I1
sS'hour'
p1749
I1
sS'besides'
p1750
I2
sS'remain'
p1751
I2
sS'nine'
p1752
I1
sS'learn'
p1753
I1
sS'marble'
p1754
I2
sS'history'
p1755
I3
sS'beautiful'
p1756
I3
sS'compare'
p1757
I2
sS'attainted'
p1758
I3
sS'visage'
p1759
I2
sS'trial'
p1760
I2
sS'share'
p1761
I1
sS'conspire'
p1762
I2
sS'thievish'
p1763
I2
sS'well-seeing'
p1764
I3
sS'numbers'
p1765
I2
sS'well-tuned'
p1766
I3
sS'sharp'
p1767
I1
sS'allege'
p1768
I2
sS'huge'
p1769
I1
sS'needs'
p1770
I1
sS'drained'
p1771
I1
sS'needy'
p1772
I2
sS"'thus"
p1773
I1
sS'comfort'
p1774
I2
sS'chopt'
p1775
I1
sS"adder's"
p1776
I2
sS'glowing'
p1777
I1
sS"heart's"
p1778
I1
sS'sacred'
p1779
I2
sS'new-fangled'
p1780
I3
sS'creature'
p1781
I2
sS'simplicity'
p1782
I4
sS'rude'
p1783
I1
sS'disgraced'
p1784
I1
sS'mended'
p1785
I2
sS'blood'
p1786
I1
sS'coming'
p1787
I2
sS'monsters'
p1788
I2
sS'replete'
p1789
I2
sS'a'
p1790
I1
sS'refuse'
p1791
I4
sS'short'
p1792
I1
sS'resemble'
p1793
I3
sS'shady'
p1794
I2
sS'register'
p1795
I3
sS"present'st"
p1796
I2
sS'shore'
p1797
I1
sS'shade'
p1798
I1
sS'perjured'
p1799
I2
sS'banks'
p1800
I1
sS'pleasure'
p1801
I2
sS"gav'st"
p1802
I1
sS'penury'
p1803
I3
sS'dream'
p1804
I1
sS"that's"
p1805
I1
sS'recite'
p1806
I2
sS'help'
p1807
I1
sS'winged'
p1808
I1
sS'stays'
p1809
I1
sS'soon'
p1810
I1
sS'disabled'
p1811
I1
sS'held'
p1812
I1
sS'paper'
p1813
I2
sS'through'
p1814
I1
sS'signs'
p1815
I1
sS'hell'
p1816
I1
sS'smiling'
p1817
I2
sS'suffer'
p1818
I2
sS'saucy'
p1819
I2
sS'style'
p1820
I1
sS'pent'
p1821
I1
sS'render'
p1822
I4
sS'termed'
p1823
I1
sS'pray'
p1824
I1
sS'inward'
p1825
I2
sS'deeds'
p1826
I1
sS'bosom'
p1827
I2
sS'teeming'
p1828
I2
sS'famished'
p1829
I2
sS'late'
p1830
I1
sS'resort'
p1831
I2
sS'absence'
p1832
I2
sS'strange'
p1833
I1
sS'threescore'
p1834
I2
sS'ruining'
p1835
I2
sS'self-willed'
p1836
I2
sS'might'
p1837
I1
sS'alter'
p1838
I2
sS'crawls'
p1839
I1
sS'forbear'
p1840
I2
sS'good'
p1841
I1
sS'tyrants'
p1842
I2
sS'kingly'
p1843
I2
sS'seeking'
p1844
I2
sS'food'
p1845
I1
sS'ye'
p1846
I3
sS'storm-beaten'
p1847
I3
sS'speechless'
p1848
I2
sS'walls'
p1849
I1
sS'nymphs'
p1850
I1
sS'thereof'
p1851
I2
sS'weeds'
p1852
I1
sS'foot'
p1853
I1
sS'hunted'
p1854
I2
sS'breathers'
p1855
I2
sS"mistress'"
p1856
I2
sS'complain'
p1857
I2
sS'likeness'
p1858
I2
sS'imprisoned'
p1859
I3
sS'bent'
p1860
I1
sS'thence'
p1861
I1
sS'truths'
p1862
I1
sS'eloquence'
p1863
I3
sS'tear'
p1864
I1
sS'stopped'
p1865
I1
sS'turns'
p1866
I1
sS'found'
p1867
I1
sS'heavy'
p1868
I2
sS'weighs'
p1869
I1
sS'proud-pied'
p1870
I2
sS'bends'
p1871
I1
sS'weight'
p1872
I1
sS'house'
p1873
I1
sS'hard'
p1874
I1
sS'oppressed'
p1875
I1
sS'surly'
p1876
I2
sS"nature's"
p1877
I2
sS'beyond'
p1878
I2
sS'orient'
p1879
I3
sS'travels'
p1880
I2
sS'lovers'
p1881
I2
sS'missed'
p1882
I1
sS'since'
p1883
I1
sS'publish'
p1884
I2
sS'admired'
p1885
I2
sS'health'
p1886
I1
sS'hill'
p1887
I1
sS'print'
p1888
I1
sS'darling'
p1889
I2
sS'issue'
p1890
I2
sS'sympathized'
p1891
I3
sS'stewards'
p1892
I2
sS'boldness'
p1893
I2
sS'belied'
p1894
I2
sS'commits'
p1895
I2
sS'fore-bemoaned'
p1896
I4
sS'forgive'
p1897
I2
sS'pleasant'
p1898
I2
sS'qualify'
p1899
I3
sS'base'
p1900
I1
sS'impeached'
p1901
I2
sS'put'
p1902
I1
sS'teach'
p1903
I1
sS'reproach'
p1904
I2
sS"know'st"
p1905
I1
sS'beast'
p1906
I1
sS'owners'
p1907
I2
sS'service'
p1908
I2
sS"woman's"
p1909
I2
sS'noted'
p1910
I2
sS'sicken'
p1911
I2
sS'pure'
p1912
I1
sS'twenty'
p1913
I2
sS'corrupting'
p1914
I3
sS'feed'
p1915
I1
sS'gazed'
p1916
I1
sS'seeming'
p1917
I2
sS'forwards'
p1918
I2
sS'blush'
p1919
I1
sS'feel'
p1920
I1
sS'number'
p1921
I2
sS'antiquity'
p1922
I4
sS'elder'
p1923
I4
sS'enlarged'
p1924
I2
sS'revolution'
p1925
I4
sS'done'
p1926
I1
sS'defects'
p1927
I2
sS'dreading'
p1928
I2
sS'slept'
p1929
I1
sS'rents'
p1930
I1
sS'moan'
p1931
I1
sS'horse'
p1932
I1
sS'guest'
p1933
I1
sS'become'
p1934
I2
sS'rondure'
p1935
I2
sS'together'
p1936
I3
sS'slanderers'
p1937
I3
sS'least'
p1938
I1
sS'hallowed'
p1939
I1
sS'shamed'
p1940
I1
sS'passed'
p1941
I1
sS'essays'
p1942
I2
sS'hundred'
p1943
I2
sS'store'
p1944
I1
sS'lease'
p1945
I1
sS'youngly'
p1946
I2
sS'selling'
p1947
I2
sS'imperfect'
p1948
I3
sS'saint'
p1949
I1
sS'longing'
p1950
I2
sS'adonis'
p1951
I3
sS'part'
p1952
I1
sS'bower'
p1953
I4
sS'believe'
p1954
I2
sS'grace'
p1955
I1
sS'king'
p1956
I1
sS'kind'
p1957
I1
sS'grew'
p1958
I1
sS'mortality'
p1959
I4
sS'vial'
p1960
I2
sS'double'
p1961
I2
sS'anticipate'
p1962
I4
sS'mortgaged'
p1963
I1
sS'grey'
p1964
I1
sS'shallowest'
p1965
I3
sS'youth'
p1966
I1
sS'autumn'
p1967
I2
sS'determined'
p1968
I3
sS'contrary'
p1969
I3
sS'supposed'
p1970
I23
sS'toward'
p1971
I2
sS'restful'
p1972
I2
sS'afar'
p1973
I2
sS'tongues'
p1974
I1
sS'trifles'
p1975
I2
sS'ages'
p1976
I2
sS'defect'
p1977
I2
sS'livery'
p1978
I3
sS'new-fired'
p1979
I2
sS'alike'
p1980
I2
sS'showers'
p1981
I2
sS'travail'
p1982
I4
sS'fading'
p1983
I2
sS'sensual'
p1984
I3
sS'sell'
p1985
I1
sS'mountain'
p1986
I2
sS'nights'
p1987
I1
sS'built'
p1988
I1
sS'dancing'
p1989
I2
sS'self'
p1990
I1
sS'onset'
p1991
I2
sS'lifts'
p1992
I1
sS'lip'
p1993
I1
sS'finding'
p1994
I2
sS'drinks'
p1995
I1
sS'chary'
p1996
I2
sS"art's"
p1997
I1
sS"'had"
p1998
I1
sS'towards'
p1999
I2
sS'reckon'
p2000
I2
sS'drowns'
p2001
I1
sS'unswayed'
p2002
I2
sS'unused'
p2003
I2
sS'most'
p2004
I1
sS'offences'
p2005
I3
sS'blunting'
p2006
I2
sS'amazeth'
p2007
I3
sS'nothing'
p2008
I2
sS'seasons'
p2009
I2
sS"o'ercharged"
p2010
I2
sS'wastes'
p2011
I1
sS'measured'
p2012
I2
sS'stands'
p2013
I1
sS'chronicle'
p2014
I3
sS'feasting'
p2015
I2
sS'windows'
p2016
I2
sS'builded'
p2017
I2
sS'clear'
p2018
I1
sS'sometimes'
p2019
I2
sS'cover'
p2020
I2
sS'unbred'
p2021
I2
sS'reeleth'
p2022
I2
sS'barren'
p2023
I2
sS'convertest'
p2024
I2
sS'eisel'
p2025
I2
sS'lying'
p2026
I2
sS'stones'
p2027
I1
sS'self-substantial'
p2028
I4
sS'despise'
p2029
I2
sS'gold'
p2030
I1
sS'gates'
p2031
I1
sS"y'have"
p2032
I1
sS'wailing'
p2033
I2
sS'fond'
p2034
I1
sS'bending'
p2035
I2
sS'rhymers'
p2036
I2
sS'wasted'
p2037
I2
sS'registers'
p2038
I3
sS'fine'
p2039
I1
sS'find'
p2040
I1
sS'viewest'
p2041
I2
sS'sportive'
p2042
I2
sS'gilded'
p2043
I2
sS'flattery'
p2044
I3
sS'shouldst'
p2045
I1
sS'deserts'
p2046
I2
sS'ruin'
p2047
I2
sS'less'
p2048
I1
sS'waiting'
p2049
I2
sS'vision'
p2050
I2
sS'betray'
p2051
I2
sS'beauteous'
p2052
I3
sS'fiend'
p2053
I1
sS"painter's"
p2054
I2
sS'niggard'
p2055
I2
sS'gains'
p2056
I1
sS'compiled'
p2057
I2
sS'express'
p2058
I2
sS'impregnable'
p2059
I4
sS'trees'
p2060
I1
sS'remedy'
p2061
I3
sS'hid'
p2062
I1
sS'breast'
p2063
I1
sS'compass'
p2064
I2
sS'swart-complexioned'
p2065
I4
sS'sepulchres'
p2066
I3
sS"send'st"
p2067
I1
sS'him'
p2068
I1
sS'distraction'
p2069
I3
sS'grievances'
p2070
I3
sS'pleasures'
p2071
I2
sS'cry'
p2072
I1
sS'impanelled'
p2073
I3
sS'remove'
p2074
I2
sS'augurs'
p2075
I2
sS'common'
p2076
I2
sS'kill'
p2077
I1
sS'poisoned'
p2078
I2
sS'wrongfully'
p2079
I3
sS'bars'
p2080
I1
sS'set'
p2081
I1
sS'art'
p2082
I1
sS'declines'
p2083
I2
sS'jade'
p2084
I1
sS"o'ersways"
p2085
I2
sS'see'
p2086
I1
sS'bare'
p2087
I1
sS'are'
p2088
I1
sS'sea'
p2089
I1
sS'presenteth'
p2090
I3
sS'bark'
p2091
I1
sS'outward'
p2092
I2
sS'spirits'
p2093
I2
sS'forlorn'
p2094
I2
sS'please'
p2095
I1
sS'drooping'
p2096
I2
sS'unions'
p2097
I2
sS'won'
p2098
I1
sS'gentlest'
p2099
I2
sS'affairs'
p2100
I2
sS'woe'
p2101
I1
sS'guilt'
p2102
I1
sS'rite'
p2103
I1
sS'tibey'
p2104
I2
sS'thrive'
p2105
I1
sS'endure'
p2106
I2
sS'knowing'
p2107
I2
sS'creating'
p2108
I3
sS'sold'
p2109
I1
sS'sole'
p2110
I1
sS'vanishing'
p2111
I3
sS'death'
p2112
I1
sS'alters'
p2113
I2
sS'both'
p2114
I1
sS'last'
p2115
I1
sS'grounded'
p2116
I2
sS'desired'
p2117
I2
sS'thou'
p2118
I1
sS'anon'
p2119
I2
sS'forgotten'
p2120
I3
sS'poverty'
p2121
I3
sS'possesseth'
p2122
I3
sS'approve'
p2123
I2
sS'finds'
p2124
I1
sS'usest'
p2125
I2
sS'flies'
p2126
I1
sS'majesty'
p2127
I3
sS'point'
p2128
I1
sS'reasons'
p2129
I2
sS'sweet'
p2130
I1
sS'loan'
p2131
I1
sS'manners'
p2132
I2
sS'except'
p2133
I2
sS'liker'
p2134
I2
sS'worthless'
p2135
I2
sS'devil'
p2136
I2
sS'unworthiness'
p2137
I4
sS"'scaped"
p2138
I11
sS'arrest'
p2139
I2
sS'stamp'
p2140
I1
sS'devouring'
p2141
I3
sS'acceptance'
p2142
I3
sS'satire'
p2143
I2
sS'due'
p2144
I1
sS'adulterate'
p2145
I4
sS'whom'
p2146
I1
sS'secret'
p2147
I2
sS"wood's"
p2148
I1
sS'wait'
p2149
I1
sS'delights'
p2150
I2
sS'rosy'
p2151
I2
sS'firm'
p2152
I1
sS'lived'
p2153
I1
sS'partly'
p2154
I2
sS'gay'
p2155
I1
sS"'twixt"
p2156
I1
sS'fire'
p2157
I1
sS"dial's"
p2158
I1
sS'overthrow'
p2159
I3
sS'convert'
p2160
I2
sS'else'
p2161
I1
sS'determination'
p2162
I5
sS'receive'
p2163
I2
sS'mournful'
p2164
I2
sS'plants'
p2165
I1
sS'utmost'
p2166
I2
sS'look'
p2167
I1
sS'straight'
p2168
I1
sS'admire'
p2169
I2
sS'pace'
p2170
I1
sS'while'
p2171
I1
sS'rigour'
p2172
I2
sS"intermixed'"
p2173
I3
sS'kissing'
p2174
I2
sS'eclipses'
p2175
I3
sS'all-oblivious'
p2176
I4
sS'odour'
p2177
I2
sS"is't"
p2178
I1
sS'confound'
p2179
I2
sS'vow'
p2180
I1
sS'unperfect'
p2181
I3
sS'owes'
p2182
I1
sS'seen'
p2183
I1
sS'rid'
p2184
I1
sS'seest'
p2185
I1
sS'fairer'
p2186
I2
sS'chase'
p2187
I1
sS'twofold'
p2188
I2
sS'grant'
p2189
I1
sS'lengths'
p2190
I1
sS'bristly'
p2191
I2
sS'belong'
p2192
I2
sS'engrossed'
p2193
I2
sS'wherein'
p2194
I2
sS'discourse'
p2195
I2
sS'esteemed'
p2196
I2
sS'ruth'
p2197
I1
sS'composition'
p2198
I4
sS'covetous'
p2199
I3
sS'used'
p2200
I1
sS'lie'
p2201
I1
sS'mow'
p2202
I1
sS'moment'
p2203
I2
sS'moving'
p2204
I2
sS'user'
p2205
I2
sS'wretchcd'
p2206
I2
sS'early'
p2207
I2
sS'task'
p2208
I1
sS'older'
p2209
I2
sS'accumulate'
p2210
I4
sS'cheek'
p2211
I1
sS'loathsome'
p2212
I2
sS"frown'st"
p2213
I1
sS'grind'
p2214
I1
sS'morrow'
p2215
I2
sS'cheer'
p2216
I1
sS'edge'
p2217
I1
sS'starved'
p2218
I1
sS'toil'
p2219
I1
sS'stelled'
p2220
I1
sS'spend'
p2221
I1
sS'plagues'
p2222
I1
sS'presume'
p2223
I2
sS'salve'
p2224
I4
sS'shape'
p2225
I1
sS'aright'
p2226
I2
sS'injuries'
p2227
I3
sS'unto'
p2228
I2
sS'gems'
p2229
I1
sS'tables'
p2230
I2
sS'cut'
p2231
I1
sS'cup'
p2232
I1
sS'hated'
p2233
I2
sS'decayed'
p2234
I2
sS'hues'
p2235
I1
sS'crying'
p2236
I2
sS"either's"
p2237
I2
sS"tongue's"
p2238
I1
sS'march'
p2239
I1
sS'lacking'
p2240
I2
sS'big'
p2241
I1
sS'bid'
p2242
I1
sS'advocate'
p2243
I3
sS'judgement'
p2244
I2
sS'redeem'
p2245
I2
sS'quest'
p2246
I1
sS'messengers'
p2247
I3
sS'dearly'
p2248
I2
sS'necessary'
p2249
I4
sS'sharpened'
p2250
I2
sS"garments'"
p2251
I2
sS'outright'
p2252
I2
sS'inviting'
p2253
I3
sS'follows'
p2254
I2
sS'strife'
p2255
I1
sS'shapes'
p2256
I1
sS'translated'
p2257
I3
sS'tribes'
p2258
I1
sS'foolish'
p2259
I2
sS'canst'
p2260
I1
sS'often'
p2261
I2
sS'wombs'
p2262
I1
sS'spring'
p2263
I1
sS'creation'
p2264
I3
sS'some'
p2265
I1
sS'play'
p2266
I1
sS'sighs'
p2267
I1
sS'lips'
p2268
I1
sS'added'
p2269
I1
sS'sight'
p2270
I1
sS'curious'
p2271
I3
sS'pale'
p2272
I1
sS'sauces'
p2273
I2
sS'delivered'
p2274
I3
sS'acquaintance'
p2275
I3
sS'fairing'
p2276
I2
sS'shall'
p2277
I1
sS'oblivion'
p2278
I4
sS'balmy'
p2279
I2
sS'kind-hearted'
p2280
I3
sS'barrenly'
p2281
I3
sS'lark'
p2282
I1
sS'worship'
p2283
I2
sS'be'
p2284
I1
sS'run'
p2285
I1
sS'remembered'
p2286
I3
sS'clay'
p2287
I1
sS"shadow's"
p2288
I2
sS"'this"
p2289
I1
sS'aloft'
p2290
I2
sS'rent'
p2291
I1
sS'fee'
p2292
I1
sS'concealed'
p2293
I2
sS'universe'
p2294
I3
sS'by'
p2295
I1
sS'shine'
p2296
I1
sS'faith'
p2297
I1
sS'deserved'
p2298
I1
sS'wrinkles'
p2299
I2
sS'deserves'
p2300
I2
sS'ambush'
p2301
I2
sS'felt'
p2302
I1
sS'hatred'
p2303
I2
sS'tenants'
p2304
I2
sS'youthful'
p2305
I2
sS'misplaced'
p2306
I2
sS'repair'
p2307
I2
sS'conquest'
p2308
I2
sS'within'
p2309
I2
sS'warmed'
p2310
I1
sS'debateth'
p2311
I3
sS'services'
p2312
I3
sS'because'
p2313
I2
sS'remembrance'
p2314
I3
sS'lesson'
p2315
I2
sS"sharp'st"
p2316
I1
sS'story'
p2317
I2
sS'featureless'
p2318
I3
sS'spending'
p2319
I2
sS'question'
p2320
I2
sS'long'
p2321
I1
sS'whereto'
p2322
I2
sS'slandering'
p2323
I3
sS'suit'
p2324
I1
sS'translate'
p2325
I2
sS'himself'
p2326
I2
sS'arise'
p2327
I2
sS'elsewhere'
p2328
I2
sS'governs'
p2329
I2
sS'graciously'
p2330
I3
sS'healthful'
p2331
I2
sS'frost'
p2332
I1
sS'vowing'
p2333
I2
sS'authority'
p2334
I4
sS'newer'
p2335
I2
sS'filed'
p2336
I1
sS'hopes'
p2337
I1
sS'line'
p2338
I1
sS'dull'
p2339
I1
sS'usury'
p2340
I3
sS'directed'
p2341
I1
sS'bevel'
p2342
I2
sS'immured'
p2343
I2
sS"lover's"
p2344
I2
sS'sullied'
p2345
I2
sS'us'
p2346
I1
sS'lords'
p2347
I1
sS'maturity'
p2348
I4
sS'slander'
p2349
I2
sS'hied'
p2350
I1
sS'called'
p2351
I1
sS'vassalage'
p2352
I3
sS'bell'
p2353
I1
sS'sort'
p2354
I1
sS'constant'
p2355
I2
sS'bind'
p2356
I1
sS'goodly'
p2357
I2
sS'allayed'
p2358
I2
sS'influence'
p2359
I3
sS'rarities'
p2360
I3
sS'single'
p2361
I2
sS'mightier'
p2362
I2
sS'assailed'
p2363
I2
sS'surmise'
p2364
I2
sS'rainy'
p2365
I2
sS'sullen'
p2366
I2
sS'sunken'
p2367
I2
sS'impediments'
p2368
I4
sS'peace'
p2369
I1
sS'fears'
p2370
I1
sS'dimmed'
p2371
I1
sS'afford'
p2372
I2
sS'becomes'
p2373
I2
sS'nay'
p2374
I1
sS'mock'
p2375
I1
sS'perusal'
p2376
I3
sS'draw'
p2377
I1
sS'elements'
p2378
I3
sS'clean'
p2379
I1
sS'besiege'
p2380
I2
sS'breasts'
p2381
I1
sS'rise'
p2382
I1
sS'weigh'
p2383
I1
sS'makeless'
p2384
I2
sS'wrinkle'
p2385
I2
sS'desert'
p2386
I4
sS'land'
p2387
I1
sS'happier'
p2388
I2
sS"excuse'"
p2389
I2
sS"spend'st"
p2390
I1
sS'vice'
p2391
I3
sS'age'
p2392
I1
sS'wards'
p2393
I1
sS'admiring'
p2394
I3
sS'heats'
p2395
I1
sS'came'
p2396
I1
sS'far'
p2397
I1
sS'fresh'
p2398
I1
sS'marvel'
p2399
I2
sS'having'
p2400
I2
sS'once'
p2401
I1
sS'wilfulness'
p2402
I3
sS'discontent'
p2403
I3
sS'highmost'
p2404
I2
sS'tombs'
p2405
I1
sS"deformed'st"
p2406
I2
sS'alien'
p2407
I2
sS'windy'
p2408
I2
sS'special-blest'
p2409
I3
sS'winds'
p2410
I1
sS'ruminate'
p2411
I3
sS'seemed'
p2412
I1
sS'graves'
p2413
I1
sS'tincture'
p2414
I2
sS'uphold'
p2415
I2
sS'reckoned'
p2416
I2
sS'young'
p2417
I1
sS'send'
p2418
I1
sS'debarred'
p2419
I2
sS'pleasing'
p2420
I2
sS'virtuous'
p2421
I3
sS'over-partial'
p2422
I4
sS'queen'
p2423
I1
sS'wished'
p2424
I1
sS'torture'
p2425
I2
sS"'now"
p2426
I1
sS'confounding'
p2427
I1
sS'rhyme'
p2428
I1
sS'rebuked'
p2429
I2
sS'scanted'
p2430
I2
sS'accuse'
p2431
I2
sS'telling'
p2432
I2
sS'false-speaking'
p2433
I3
sS'iniquity'
p2434
I4
sS'bonds'
p2435
I1
sS'try'
p2436
I1
sS"eve's"
p2437
I1
sS'race'
p2438
I1
sS'verdict'
p2439
I2
sS'betwixt'
p2440
I2
sS'rack'
p2441
I1
sS"alt'ring"
p2442
I2
sS'crow'
p2443
I1
sS"work's"
p2444
I1
sS'thinly'
p2445
I2
sS'waking'
p2446
I2
sS'jump'
p2447
I1
sS'issueless'
p2448
I3
sS'plead'
p2449
I1
sS'decrees'
p2450
I2
sS'pity-wanting'
p2451
I4
sS'victor'
p2452
I2
sS'giving'
p2453
I2
sS'saw'
p2454
I1
sS'expressed'
p2455
I1
sS"man's"
p2456
I1
sS'rotten'
p2457
I2
sS'bird'
p2458
I1
sS'body'
p2459
I2
sS'melancholy'
p2460
I4
sS'chose'
p2461
I1
sS'gathered'
p2462
I2
sS'sins'
p2463
I1
sS'nimble'
p2464
I2
sS'scythe'
p2465
I1
sS'objects'
p2466
I2
sS'let'
p2467
I1
sS'separation'
p2468
I4
sS'others'
p2469
I2
sS'dissuade'
p2470
I2
sS'sing'
p2471
I1
sS'miser'
p2472
I2
sS'extreme'
p2473
I2
sS'great'
p2474
I1
sS'burthens'
p2475
I2
sS'conceit'
p2476
I2
sS'metre'
p2477
I2
sS'leaving'
p2478
I2
sS'survey'
p2479
I2
sS'defeat'
p2480
I2
sS'proof'
p2481
I1
sS'makes'
p2482
I1
sS'writes'
p2483
I1
sS'composed'
p2484
I2
sS'thralled'
p2485
I1
sS'chaste'
p2486
I1
sS'apple'
p2487
I2
sS'sire'
p2488
I1
sS'forbid'
p2489
I2
sS'win'
p2490
I1
sS"whoe'er"
p2491
I2
sS'private'
p2492
I2
sS'uprear'
p2493
I2
sS'instinct'
p2494
I2
sS'wit'
p2495
I1
sS'decrease'
p2496
I2
sS'scandal'
p2497
I2
sS'cloud'
p2498
I1
sS'desiring'
p2499
I3
sS"lovers'"
p2500
I2
sS'use'
p2501
I1
sS'cheered'
p2502
I1
sS'from'
p2503
I1
sS'remains'
p2504
I2
sS'hammered'
p2505
I2
sS'next'
p2506
I1
sS'few'
p2507
I1
sS'doubt'
p2508
I1
sS'themselves'
p2509
I2
sS'hiding'
p2510
I2
sS"sun's"
p2511
I1
sS'defendant'
p2512
I3
sS'cheeks'
p2513
I1
sS'possession'
p2514
I3
sS'pencil'
p2515
I2
sS'babe'
p2516
I1
sS'pretty'
p2517
I2
sS'misuse'
p2518
I2
sS'famoused'
p2519
I2
sS'heir'
p2520
I1
sS"need'st"
p2521
I1
sS'infection'
p2522
I3
sS'insufficiency'
p2523
I5
sS'sue'
p2524
I1
sS'tattered'
p2525
I2
sS'gladly'
p2526
I2
sS'harvest'
p2527
I2
sS'annoy'
p2528
I2
sS'high'
p2529
I1
sS'account'
p2530
I2
sS'salving'
p2531
I2
sS'this'
p2532
I1
sS'ride'
p2533
I1
sS'crossed'
p2534
I1
sS'praise'
p2535
I1
sS'executor'
p2536
I4
sS'meet'
p2537
I1
sS'drops'
p2538
I1
sS'befits'
p2539
I2
sS'vaunt'
p2540
I1
sS'control'
p2541
I2
sS'dregs'
p2542
I1
sS'unswept'
p2543
I2
sS"grow'st"
p2544
I1
sS'ushers'
p2545
I2
sS'process'
p2546
I2
sS"none'"
p2547
I1
sS'sought'
p2548
I1
sS'his'
p2549
I1
sS'something'
p2550
I2
sS'bones'
p2551
I1
sS'purposed'
p2552
I2
sS'paws'
p2553
I1
sS'darkening'
p2554
I3
sS'counterfeit'
p2555
I3
sS'lamb'
p2556
I1
sS'comes'
p2557
I2
sS'counting'
p2558
I2
sS'compounded'
p2559
I1
sS'falls'
p2560
I1
sS'sit'
p2561
I1
sS"sickle's"
p2562
I2
sS'holds'
p2563
I1
sS'thrall'
p2564
I1
sS'moods'
p2565
I1
sS'swear'
p2566
I1
sS'beams'
p2567
I1
sS'mightst'
p2568
I1
sS'forsaken'
p2569
I3
sS'sin'
p2570
I1
sS'watery'
p2571
I3
sS'attend'
p2572
I2
sS'watch'
p2573
I1
sS'canker'
p2574
I2
sS'abuse'
p2575
I2
sS'fits'
p2576
I1
sS"worth's"
p2577
I1
sS'tomb'
p2578
I1
sS'physic'
p2579
I2
sS'bankrupt'
p2580
I2
sS"bear'st"
p2581
I1
sS'untrimmed'
p2582
I2
sS'light'
p2583
I1
sS'lame'
p2584
I1
sS'lines'
p2585
I1
sS'chief'
p2586
I1
sS'writ'
p2587
I1
sS'allow'
p2588
I2
sS'tenure'
p2589
I2
sS'favourites'
p2590
I3
sS'dispraise'
p2591
I2
sS'neglect'
p2592
I2
sS'beauties'
p2593
I2
sS'stamped'
p2594
I1
sS'transfix'
p2595
I2
sS'move'
p2596
I1
sS'sightless'
p2597
I2
sS"o'erlook"
p2598
I2
sS'whilst'
p2599
I1
sS'beguile'
p2600
I2
sS'dearest'
p2601
I2
sS'enclose'
p2602
I2
sS'looks'
p2603
I1
sS'tyrant'
p2604
I4
sS'thyself'
p2605
I2
sS'badges'
p2606
I2
sS'perfect'
p2607
I2
sS'refusest'
p2608
I2
sS'frailties'
p2609
I2
sS'brood'
p2610
I1
sS'whereon'
p2611
I2
sS'unstained'
p2612
I2
sS'decay'
p2613
I2
sS'lo'
p2614
I1
sS'whereof'
p2615
I2
sS'banquet'
p2616
I2
sS'themes'
p2617
I1
sS'willing'
p2618
I2
sS'choose'
p2619
I1
sS'tickled'
p2620
I2
sS'greater'
p2621
I2
sS'anchored'
p2622
I2
sS'sweets'
p2623
I1
sS'stout'
p2624
I1
sS'hands'
p2625
I1
sS'front'
p2626
I1
sS"owner's"
p2627
I2
sS'kindness'
p2628
I2
sS'affections'
p2629
I3
sS'day'
p2630
I1
sS'damasked'
p2631
I2
sS'strive'
p2632
I1
sS'profound'
p2633
I2
sS'eased'
p2634
I1
sS'feast'
p2635
I1
sS'mouthed'
p2636
I1
sS'trimmed'
p2637
I1
sS'slide'
p2638
I1
sS'truth'
p2639
I1
sS'gazing'
p2640
I2
sS'legions'
p2641
I2
sS'treads'
p2642
I1
sS'pitying'
p2643
I3
sS'female'
p2644
I2
sS'doing'
p2645
I2
sS"princes'"
p2646
I2
sS'ills'
p2647
I1
sS'alteration'
p2648
I4
sS'society'
p2649
I4
sS'decays'
p2650
I2
sS'exceeded'
p2651
I3
sS'our'
p2652
I1
sS'bay'
p2653
I1
sS'tenth'
p2654
I1
sS'beweep'
p2655
I2
sS'out'
p2656
I1
sS'respects'
p2657
I2
sS"children's"
p2658
I2
sS'plods'
p2659
I1
sS'confess'
p2660
I2
sS'sufficed'
p2661
I2
sS'bad'
p2662
I1
sS'frowns'
p2663
I1
sS'impart'
p2664
I2
sS'cause'
p2665
I1
sS'red'
p2666
I1
sS'perish'
p2667
I2
sS'frank'
p2668
I1
sS'darkly'
p2669
I2
sS'embassy'
p2670
I3
sS'attending'
p2671
I3
sS'tresses'
p2672
I2
sS'thrust'
p2673
I1
sS'yore'
p2674
I1
sS'cured'
p2675
I1
sS'prepare'
p2676
I2
sS'rearward'
p2677
I2
sS'could'
p2678
I1
sS'times'
p2679
I1
sS'counterpart'
p2680
I3
sS'keen'
p2681
I1
sS'length'
p2682
I1
sS'cures'
p2683
I1
sS'mortal'
p2684
I2
sS'hence'
p2685
I1
sS'ears'
p2686
I1
sS'rudely'
p2687
I2
sS'new-appearing'
p2688
I4
sS'fragrant'
p2689
I2
sS'pitied'
p2690
I2
sS'possessing'
p2691
I3
sS'powerful'
p2692
I3
sS'loveliness'
p2693
I3
sS'feasts'
p2694
I1
sS"learned's"
p2695
I2
sS'such'
p2696
I1
sS'reigned'
p2697
I1
sS'quality'
p2698
I3
sS'moiety'
p2699
I3
sS'uneared'
p2700
I2
sS"love'"
p2701
I1
sS'sadly'
p2702
I2
sS'ordering'
p2703
I3
sS'dove'
p2704
I1
sS'vulgar'
p2705
I2
sS'seat'
p2706
I1
sS'their'
p2707
I1
sS'intelligence'
p2708
I4
sS'prouder'
p2709
I2
sS'travelled'
p2710
I2
sS'badness'
p2711
I2
sS'fairest'
p2712
I2
sS'painful'
p2713
I2
sS'beard'
p2714
I1
sS'watching'
p2715
I2
sS'never-resting'
p2716
I4
sS"were't"
p2717
I1
sS'perforce'
p2718
I2
sS'prefiguring'
p2719
I4
sS'spites'
p2720
I1
sS'commence'
p2721
I2
sS'soundless'
p2722
I2
sS'steel'
p2723
I1
sS'loved'
p2724
I1
sS'unlooked'
p2725
I2
sS'aught'
p2726
I1
sS"o'er"
p2727
I1
sS'riches'
p2728
I2
sS'richer'
p2729
I2
sS'bed'
p2730
I1
sS'jollity'
p2731
I3
sS'transgression'
p2732
I3
sS"body's"
p2733
I2
sS'loves'
p2734
I1
sS'lover'
p2735
I4
sS'dumb'
p2736
I1
sS"lily's"
p2737
I2
sS'steep'
p2738
I1
sS'descriptions'
p2739
I3
sS'drunk'
p2740
I1
sS'accusing'
p2741
I1
sS'enforced'
p2742
I2
sS'beggared'
p2743
I2
sS'false'
p2744
I1
sS"forget'st"
p2745
I2
sS'beggar'
p2746
I2
sS'labouring'
p2747
I3
sS'gently'
p2748
I2
sS'refigured'
p2749
I3
sS'gentle'
p2750
I4
sS'buy'
p2751
I1
sS'torment'
p2752
I2
sS'have'
p2753
I1
sS're-survey'
p2754
I3
sS'need'
p2755
I1
sS'turn'
p2756
I1
sS'sings'
p2757
I1
sS'bastard'
p2758
I2
sS'bough'
p2759
I1
sS'wits'
p2760
I1
sS'able'
p2761
I2
sS'gravity'
p2762
I3
sS'adjunct'
p2763
I2
sS'which'
p2764
I1
sS'divert'
p2765
I2
sS'abhor'
p2766
I2
sS'adieu'
p2767
I2
sS'unless'
p2768
I2
sS'centre'
p2769
I2
sS'senses'
p2770
I2
sS'who'
p2771
I1
sS'privilage'
p2772
I3
sS"beds'"
p2773
I1
sS"time's"
p2774
I1
sS'harmful'
p2775
I2
sS'offend'
p2776
I2
sS'lust'
p2777
I1
sS'but'
p2778
I1
sS'prisoner'
p2779
I3
sS'expired'
p2780
I1
sS'why'
p2781
I1
sS"husband's"
p2782
I2
sS'afresh'
p2783
I2
sS'deny'
p2784
I2
sS'wherewith'
p2785
I2
sS'bred'
p2786
I1
sS'stronger'
p2787
I2
sS'disease'
p2788
I2
sS"widow's"
p2789
I2
sS'pipe'
p2790
I1
sS'wounded'
p2791
I2
sS'painting'
p2792
I2
sS'outlive'
p2793
I2
sS'deface'
p2794
I2
sS'impression'
p2795
I3
sS'afloat'
p2796
I2
sS'wilful'
p2797
I2
sS'couldst'
p2798
I1
sS'burden'
p2799
I2
sS'poesy'
p2800
I3
sS'bring'
p2801
I1
sS"many's"
p2802
I2
sS'rough'
p2803
I1
sS'obsequious'
p2804
I4
sS'debate'
p2805
I2
sS'spurring'
p2806
I2
sS'envy'
p2807
I2
sS'knowledge'
p2808
I2
sS'philomel'
p2809
I3
sS'mute'
p2810
I1
sS'woo'
p2811
I1
sS'world-without-end'
p2812
I4
sS'should'
p2813
I1
sS'bases'
p2814
I2
sS'preposterously'
p2815
I4
sS'fuel'
p2816
I2
sS'marriage'
p2817
I2
sS'inhabit'
p2818
I3
sS'hope'
p2819
I1
sS'meant'
p2820
I1
sS'accessary'
p2821
I4
sS'doubting'
p2822
I2
sS'means'
p2823
I1
sS'familiar'
p2824
I3
sS'bear'
p2825
I1
sS'perfection'
p2826
I3
sS'words'
p2827
I1
sS'durst'
p2828
I1
sS'leases'
p2829
I2
sS'spur'
p2830
I1
sS"offence's"
p2831
I3
sS'endless'
p2832
I2
sS'heretic'
p2833
I3
sS'evident'
p2834
I3
sS'brain'
p2835
I1
sS'gust'
p2836
I1
sS'married'
p2837
I2
sS'summon'
p2838
I2
sS'she'
p2839
I1
sS'contain'
p2840
I2
sS'fixed'
p2841
I1
sS'view'
p2842
I1
sS'strengthened'
p2843
I2
sS'sluttish'
p2844
I2
sS'untrue'
p2845
I2
sS'outbraves'
p2846
I2
sS'farthest'
p2847
I2
sS'miscalled'
p2848
I2
sS'frame'
p2849
I1
sS'shake'
p2850
I1
sS'legacy'
p2851
I3
sS'merits'
p2852
I2
sS'changes'
p2853
I2
sS'enfeebled'
p2854
I1
sS'violet'
p2855
I3
sS'sleeping'
p2856
I2
sS'tripping'
p2857
I2
sS'error'
p2858
I2
sS'closet'
p2859
I2
sS'record'
p2860
I4
sS'pattern'
p2861
I2
sS'vows'
p2862
I1
sS'unseeing'
p2863
I3
sS'tend'
p2864
I1
sS'state'
p2865
I1
sS'boughs'
p2866
I1
sS'progress'
p2867
I4
sS'neither'
p2868
I2
sS'besmeared'
p2869
I2
sS'wiry'
p2870
I2
sS'down-rased'
p2871
I2
sS'dateless'
p2872
I2
sS'dressings'
p2873
I2
sS'joy'
p2874
I1
sS'sorrow'
p2875
I2
sS'hooks'
p2876
I1
sS'key'
p2877
I1
sS'precious'
p2878
I2
sS'weary'
p2879
I2
sS'swift'
p2880
I1
sS'hits'
p2881
I1
sS'figured'
p2882
I2
sS'instant'
p2883
I2
sS'limits'
p2884
I2
sS'always'
p2885
I2
sS'invited'
p2886
I3
sS'acknowledge'
p2887
I3
sS'equal'
p2888
I2
sS'minds'
p2889
I1
sS'april'
p2890
I2
sS'admit'
p2891
I2
sS'devour'
p2892
I2
sS'streams'
p2893
I1
sS"store's"
p2894
I1
sS'behaviour'
p2895
I3
sS'canopy'
p2896
I3
sS'kinds'
p2897
I1
sS'glorious'
p2898
I3
sS'aye'
p2899
I1
sS'comment'
p2900
I2
sS'fester'
p2901
I2
sS'torn'
p2902
I1
sS'statues'
p2903
I2
sS'unfolding'
p2904
I3
sS'walk'
p2905
I1
sS'commend'
p2906
I2
sS'beguiled'
p2907
I1
sS'respect'
p2908
I2
sS'renewest'
p2909
I2
sS'second'
p2910
I2
sS'addition'
p2911
I3
sS'wills'
p2912
I1
sS'devise'
p2913
I2
sS'gaze'
p2914
I1
sS'certain'
p2915
I2
sS'poet'
p2916
I2
sS'waste'
p2917
I1
sS'define'
p2918
I2
sS'tyranny'
p2919
I3
sS'describe'
p2920
I2
sS'general'
p2921
I3
sS'proudest'
p2922
I2
sS'league'
p2923
I1
sS'painted'
p2924
I2
sS'releasing'
p2925
I3
sS"hear'st"
p2926
I1
sS'lets'
p2927
I1
sS'unmoved'
p2928
I2
sS'overturn'
p2929
I3
sS'painter'
p2930
I2
sS'debtor'
p2931
I2
sS'novel'
p2932
I2
sS'sourly'
p2933
I2
sS'surety-like'
p2934
I3
sS'wilt'
p2935
I1
sS'plain'
p2936
I1
sS'appearance'
p2937
I3
sS'as'
p2938
I1
sS'three-fold'
p2939
I2
sS'will'
p2940
I1
sS'riper'
p2941
I2
sS"hate's"
p2942
I1
sS'at'
p2943
I1
sS'ripe'
p2944
I1
sS'physicians'
p2945
I3
sS'almost'
p2946
I2
sS'up-locked'
p2947
I2
sS'thus'
p2948
I1
sS'lascivious'
p2949
I4
sS'lambs'
p2950
I1
sS'sits'
p2951
I1
sS'halt'
p2952
I1
sS'ransom'
p2953
I2
sS'all-eating'
p2954
I3
sS'perhaps'
p2955
I2
sS'cross'
p2956
I1
sS'proceeds'
p2957
I2
sS'largess'
p2958
I2
sS'adverse'
p2959
I2
sS'parts'
p2960
I1
sS'duteous'
p2961
I3
sS'freezings'
p2962
I2
sS'party'
p2963
I2
sS'well-contented'
p2964
I4
sS'blooms'
p2965
I1
sS'slave'
p2966
I1
sS'flesh'
p2967
I1
sS'shames'
p2968
I1
sS'lasting'
p2969
I2
sS'drink'
p2970
I1
sS'upon'
p2971
I2
sS'effect'
p2972
I2
sS'outcast'
p2973
I2
sS'nightly'
p2974
I2
sS"december's"
p2975
I3
sS'dust'
p2976
I1
sS'judgment'
p2977
I2
sS'steals'
p2978
I1
sS'audit'
p2979
I2
sS'scarcely'
p2980
I2
sS'off'
p2981
I1
sS'i'
p2982
I1
sS'whole'
p2983
I1
sS'colour'
p2984
I2
sS'well'
p2985
I1
sS'thought'
p2986
I1
sS'amends'
p2987
I2
sS'oft'
p2988
I1
sS'sets'
p2989
I1
sS'arising'
p2990
I3
sS'twire'
p2991
I1
sS'lest'
p2992
I1
sS'restore'
p2993
I2
sS'feathered'
p2994
I2
sS'stores'
p2995
I1
sS'kiss'
p2996
I1
sS'heavily'
p2997
I3
sS"o'erpressed"
p2998
I2
sS'gulls'
p2999
I1
sS'love-god'
p3000
I2
sS'cries'
p3001
I1
sS'interim'
p3002
I3
sS'skill'
p3003
I1
sS'thither'
p3004
I2
sS'dost'
p3005
I1
sS'reckoning'
p3006
I3
sS'field'
p3007
I1
sS'onward'
p3008
I2
sS'sky'
p3009
I1
sS'fled'
p3010
I1
sS'simple'
p3011
I2
sS'add'
p3012
I1
sS'other'
p3013
I2
sS'wet'
p3014
I1
sS"infant's"
p3015
I2
sS'raven'
p3016
I4
sS'wooed'
p3017
I1
sS'fate'
p3018
I1
sS'testy'
p3019
I2
sS'devised'
p3020
I2
sS'famine'
p3021
I2
sS"who's"
p3022
I1
sS'crushed'
p3023
I1
sS'smother'
p3024
I2
sS'five'
p3025
I1
sS'know'
p3026
I1
sS'unseen'
p3027
I2
sS'press'
p3028
I1
sS'fools'
p3029
I1
sS'loss'
p3030
I1
sS'showing'
p3031
I2
sS'like'
p3032
I1
sS'lost'
p3033
I1
sS'perpetual'
p3034
I4
sS'rich-proud'
p3035
I2
sS'admitted'
p3036
I3
sS'beseechers'
p3037
I3
sS'heed'
p3038
I1
sS'lose'
p3039
I1
sS'nerves'
p3040
I1
sS'works'
p3041
I1
sS'page'
p3042
I1
sS'lends'
p3043
I1
sS'therein'
p3044
I2
sS'decease'
p3045
I2
sS'exceed'
p3046
I2
sS'inconstant'
p3047
I3
sS'workings'
p3048
I2
sS'thief'
p3049
I1
sS'alive'
p3050
I2
sS'immortal'
p3051
I3
sS'hush'
p3052
I1
sS'growth'
p3053
I1
sS'home'
p3054
I1
sS'transport'
p3055
I2
sS"heaven's"
p3056
I2
sS'lead'
p3057
I1
sS'broad'
p3058
I1
sS'lean'
p3059
I1
sS'leap'
p3060
I1
sS'passion'
p3061
I2
sS'masked'
p3062
I1
sS"o'ertake"
p3063
I2
sS'poets'
p3064
I2
sS'slight'
p3065
I1
sS"death's"
p3066
I1
sS'expire'
p3067
I2
sS'although'
p3068
I2
sS'worthy'
p3069
I2
sS'posterity'
p3070
I4
sS'imaginary'
p3071
I5
sS'insults'
p3072
I2
sS'worths'
p3073
I1
sS'stage'
p3074
I1
sS'about'
p3075
I2
sS"murd'rous"
p3076
I2
sS'rare'
p3077
I1
sS'dun'
p3078
I1
sS'linger'
p3079
I2
sS'freedom'
p3080
I2
sS'harder'
p3081
I2
sS'blessings'
p3082
I2
sS'gainer'
p3083
I2
sS'hairs'
p3084
I1
sS'tongue'
p3085
I1
sS'beshrew'
p3086
I2
sS'outstripped'
p3087
I2
sS'own'
p3088
I1
sS'polished'
p3089
I2
sS'owe'
p3090
I1
sS'attaint'
p3091
I2
sS'guard'
p3092
I1
sS'promise'
p3093
I2
sS'esteem'
p3094
I2
sS"ne'er-cloying"
p3095
I3
sS'lawful'
p3096
I2
sS'quickly'
p3097
I2
sS'gazeth'
p3098
I2
sS'suborned'
p3099
I2
sS'victors'
p3100
I2
sS'veil'
p3101
I1
sS'trenches'
p3102
I2
sS'watchman'
p3103
I2
sS'spread'
p3104
I1
sS'much'
p3105
I1
sS"grief's"
p3106
I1
sS'function'
p3107
I2
sS'prophetic'
p3108
I3
sS'hoisted'
p3109
I2
sS'brand'
p3110
I1
sS'invocate'
p3111
I3
sS'fountains'
p3112
I2
sS'gait'
p3113
I1
sS'prophecies'
p3114
I3
sS'plague'
p3115
I1
sS'gain'
p3116
I1
sS'delivers'
p3117
I3
sS'ear'
p3118
I1
sS'eat'
p3119
I1
sS'bud'
p3120
I1
sS'he'
p3121
I1
sS'count'
p3122
I1
sS'made'
p3123
I1
sS'wise'
p3124
I1
sS'princes'
p3125
I1
sS'glory'
p3126
I2
sS'whether'
p3127
I2
sS'wish'
p3128
I1
sS'grieve'
p3129
I1
sS'triumphant'
p3130
I3
sS"eyes'"
p3131
I1
sS'placed'
p3132
I1
sS'cruel'
p3133
I2
sS'converted'
p3134
I1
sS'limit'
p3135
I2
sS'monument'
p3136
I3
sS'minutes'
p3137
I2
sS'bearing'
p3138
I2
sS'rightly'
p3139
I2
sS'deaths'
p3140
I1
sS"friend'"
p3141
I1
sS'measure'
p3142
I2
sS'dearth'
p3143
I1
sS'denote'
p3144
I2
sS'goodness'
p3145
I2
sS'ink'
p3146
I1
sS'fleeting'
p3147
I2
sS'self-killed'
p3148
I2
sS'naming'
p3149
I2
sS'endeared'
p3150
I2
sS'nursed'
p3151
I1
sS'mutual'
p3152
I3
sS'compared'
p3153
I2
sS'didst'
p3154
I1
sS'dressed'
p3155
I1
sS'boot'
p3156
I1
sS'forests'
p3157
I2
sS'slumbers'
p3158
I2
sS'book'
p3159
I1
sS'witness'
p3160
I2
sS'sick'
p3161
I1
sS'unlettered'
p3162
I3
sS'behold'
p3163
I2
sS"what's"
p3164
I1
sS'thrivers'
p3165
I2
sS'semblance'
p3166
I2
sS'star'
p3167
I1
sS'oppression'
p3168
I3
sS'variation'
p3169
I4
sS'stay'
p3170
I1
sS'methinks'
p3171
I2
sS'chance'
p3172
I1
sS'earthly'
p3173
I2
sS'astronomy'
p3174
I4
sS'friends'
p3175
I1
sS'tan'
p3176
I1
sS'ghost'
p3177
I1
sS'stirred'
p3178
I1
sS'self-example'
p3179
I4
sS'ranks'
p3180
I1
sS"he's"
p3181
I1
sS'love-kindling'
p3182
I3
sS'jewel'
p3183
I2
sS'pictured'
p3184
I2
sS'pupil'
p3185
I2
sS"sway'st"
p3186
I1
sS'vassal'
p3187
I2
sS'lives'
p3188
I1
sS'accidents'
p3189
I3
sS'gardens'
p3190
I2
s.