(dp0
S'fawn'
p1
I1
sS'pardon'
p2
I2
sS'yellow'
p3
I2
sS'four'
p4
I1
sS'hath'
p5
I1
sS'woods'
p6
I1
sS'sleep'
p7
I1
sS'suffring'
p8
I2
sS'hanging'
p9
I2
sS'mansion'
p10
I2
sS'appetite'
p11
I3
sS'captain'
p12
I2
sS'hate'
p13
I1
sS'poorly'
p14
I2
sS'whose'
p15
I1
sS'feeding'
p16
I2
sS'effectually'
p17
I4
sS'granting'
p18
I2
sS'sweetest'
p19
I2
sS'presents'
p20
I2
sS'whatsoever'
p21
I4
sS'under'
p22
I2
sS'lord'
p23
I1
sS'sorry'
p24
I2
sS'pride'
p25
I1
sS'sway'
p26
I1
sS'worth'
p27
I1
sS'frowns'
p28
I1
sS'discased'
p29
I2
sS'dispense'
p30
I2
sS'desired'
p31
I2
sS'hadst'
p32
I1
sS'inhearse'
p33
I2
sS"women's"
p34
I2
sS'every'
p35
I3
sS'foul'
p36
I1
sS'nourished'
p37
I2
sS"o'er-read"
p38
I2
sS'uttering'
p39
I3
sS'prize'
p40
I1
sS'sunk'
p41
I1
sS'graced'
p42
I1
sS'succession'
p43
I3
sS'graces'
p44
I1
sS'triumph'
p45
I2
sS'enjoy'
p46
I2
sS'forget'
p47
I2
sS'charter'
p48
I2
sS'force'
p49
I1
sS"friend's"
p50
I1
sS'tired'
p51
I1
sS'razed'
p52
I1
sS'out-going'
p53
I3
sS'assure'
p54
I2
sS'tires'
p55
I1
sS'crave'
p56
I1
sS'persuade'
p57
I2
sS'perfect'
p58
I2
sS'lourst'
p59
I1
sS'esteem'
p60
I2
sS'quill'
p61
I1
sS'even'
p62
I2
sS'beated'
p63
I2
sS'evermore'
p64
I3
sS'hide'
p65
I1
sS"ne'er"
p66
I1
sS'solemn'
p67
I2
sS'thunder'
p68
I2
sS'fingers'
p69
I2
sS'liberty'
p70
I3
sS"gild'st"
p71
I1
sS'lights'
p72
I1
sS'worser'
p73
I2
sS'preventst'
p74
I2
sS'above'
p75
I2
sS'feelst'
p76
I1
sS'matcheth'
p77
I2
sS'new'
p78
I1
sS'increasing'
p79
I1
sS'ever'
p80
I2
sS'eves'
p81
I1
sS'told'
p82
I1
sS'deemed'
p83
I1
sS'sinks'
p84
I1
sS'never'
p85
I2
sS'here'
p86
I1
sS'herd'
p87
I1
sS'beck'
p88
I1
sS"sweet'st"
p89
I1
sS'pursuit'
p90
I2
sS'active'
p91
I2
sS'quite'
p92
I1
sS'a-doting'
p93
I3
sS'dry'
p94
I1
sS'resty'
p95
I2
sS'substance'
p96
I2
sS'attending'
p97
I3
sS'leaves'
p98
I1
sS'climbed'
p99
I1
sS'credit'
p100
I2
sS'smoke'
p101
I1
sS'permit'
p102
I2
sS'bettered'
p103
I2
sS'mistake'
p104
I2
sS'settled'
p105
I2
sS'golden'
p106
I2
sS'swearing'
p107
I2
sS'divide'
p108
I2
sS'blessed-fair'
p109
I3
sS'sorrows'
p110
I2
sS'patience'
p111
I2
sS'stern'
p112
I1
sS'glance'
p113
I1
sS"light's"
p114
I1
sS'plot'
p115
I1
sS'would'
p116
I1
sS'crowning'
p117
I2
sS"world's"
p118
I1
sS'junes'
p119
I1
sS'music'
p120
I2
sS'therefore'
p121
I2
sS'survive'
p122
I2
sS'gilding'
p123
I2
sS'tell'
p124
I1
sS'breathe'
p125
I1
sS'leese'
p126
I1
sS'unbless'
p127
I2
sS'holy'
p128
I2
sS'wary'
p129
I2
sS'brings'
p130
I1
sS'wars'
p131
I1
sS'muse'
p132
I1
sS'hurt'
p133
I1
sS'grief'
p134
I1
sS'glass'
p135
I1
sS'warm'
p136
I1
sS'former'
p137
I4
sS'excellent'
p138
I3
sS'continual'
p139
I3
sS'ward'
p140
I1
sS'hold'
p141
I1
sS'striving'
p142
I2
sS'must'
p143
I1
sS'shoot'
p144
I1
sS'join'
p145
I1
sS'room'
p146
I1
sS'err'
p147
I1
sS'rights'
p148
I1
sS'work'
p149
I1
sS'eclipse'
p150
I2
sS'roof'
p151
I1
sS'meadows'
p152
I2
sS'battring'
p153
I2
sS'sharp'
p154
I1
sS'leaped'
p155
I1
sS'dost'
p156
I1
sS'revenues'
p157
I3
sS'root'
p158
I1
sS'example'
p159
I3
sS'shook'
p160
I1
sS'fresher'
p161
I1
sS'wane'
p162
I1
sS'unjust'
p163
I2
sS'impair'
p164
I2
sS"wand'rest"
p165
I2
sS'respose'
p166
I2
sS'appearance'
p167
I3
sS'story'
p168
I2
sS'returned'
p169
I2
sS'ceremony'
p170
I4
sS"consum'st"
p171
I2
sS'gusts'
p172
I1
sS'provide'
p173
I2
sS'dignifies'
p174
I3
sS'travel'
p175
I2
sS'feature'
p176
I2
sS'tyrants'
p177
I2
sS'wights'
p178
I1
sS'how'
p179
I1
sS'hot'
p180
I1
sS'writers'
p181
I2
sS'answer'
p182
I2
sS'gate'
p183
I1
sS'dignified'
p184
I3
sS"o'er-snowed"
p185
I2
sS'blanks'
p186
I1
sS'beauty'
p187
I2
sS'after'
p188
I2
sS'hence'
p189
I1
sS'wrong'
p190
I1
sS'lay'
p191
I1
sS'lap'
p192
I1
sS'wronk'
p193
I1
sS'youths'
p194
I1
sS"rud'st"
p195
I1
sS'revolt'
p196
I2
sS'greet'
p197
I1
sS'purging'
p198
I2
sS'wink'
p199
I1
sS'maintain'
p200
I2
sS'green'
p201
I1
sS'keeps'
p202
I1
sS'alack'
p203
I2
sS'wouldst'
p204
I1
sS'wind'
p205
I1
sS'bed-vow'
p206
I2
sS'determinate'
p207
I4
sS'couplement'
p208
I3
sS'helens'
p209
I2
sS'after-loss'
p210
I3
sS'office'
p211
I2
sS'consent'
p212
I2
sS'profaned'
p213
I2
sS'sickly'
p214
I2
sS'fortify'
p215
I3
sS'ghastly'
p216
I2
sS'besiege'
p217
I2
sS'budding'
p218
I2
sS"bestow'st"
p219
I2
sS'wrought'
p220
I1
sS'before'
p221
I2
sS'thrust'
p222
I1
sS'better'
p223
I2
sS'fade'
p224
I1
sS'carve'
p225
I1
sS'hidden'
p226
I2
sS'possessing'
p227
I3
sS'then'
p228
I1
sS'them'
p229
I1
sS'blots'
p230
I1
sS'weakness'
p231
I2
sS'thee'
p232
I1
sS"truth's"
p233
I1
sS'break'
p234
I1
sS"winter's"
p235
I2
sS'diseased'
p236
I2
sS'they'
p237
I1
sS'glazed'
p238
I1
sS'one'
p239
I1
sS'silver'
p240
I2
sS'shadows'
p241
I2
sS'rhetoric'
p242
I3
sS'brightness'
p243
I2
sS'slavery'
p244
I3
sS'rocks'
p245
I1
sS'herald'
p246
I2
sS'victories'
p247
I3
sS'each'
p248
I1
sS'wantonly'
p249
I3
sS'dulness'
p250
I2
sS'went'
p251
I1
sS'side'
p252
I1
sS'luck'
p253
I1
sS'true-telling'
p254
I3
sS'woes'
p255
I1
sS'concord'
p256
I2
sS"'will'"
p257
I1
sS'taught'
p258
I1
sS'forgot'
p259
I2
sS'misprision'
p260
I3
sS'whit'
p261
I1
sS'truant'
p262
I2
sS'array'
p263
I2
sS'borne'
p264
I1
sS'contend'
p265
I2
sS'silvered'
p266
I2
sS'decree'
p267
I2
sS'god'
p268
I1
sS'frownst'
p269
I1
sS'forty'
p270
I2
sS'moiety'
p271
I3
sS'content'
p272
I2
sS'laid'
p273
I1
sS'heart-inflaming'
p274
I4
sS'unseen'
p275
I2
sS'heavenly'
p276
I3
sS'got'
p277
I1
sS'marigold'
p278
I3
sS'forth'
p279
I1
sS'assured'
p280
I2
sS'fadeth'
p281
I2
sS'hang'
p282
I1
sS'eternal'
p283
I3
sS'given'
p284
I2
sS'free'
p285
I1
sS'mourning'
p286
I2
sS'small'
p287
I1
sS'bestow'
p288
I2
sS'whereupon'
p289
I3
sS'rain'
p290
I1
sS'crowned'
p291
I1
sS'mistress'
p292
I2
sS'knit'
p293
I1
sS"receiv'st"
p294
I2
sS'created'
p295
I2
sS'days'
p296
I1
sS'ist'
p297
I1
sS'ordering'
p298
I3
sS'renew'
p299
I2
sS'tempting'
p300
I2
sS'unknown'
p301
I2
sS'potions'
p302
I2
sS'loud'
p303
I1
sS'ruinate'
p304
I3
sS'penury'
p305
I3
sS'separable'
p306
I4
sS'untutored'
p307
I3
sS'already'
p308
I3
sS'hearsay'
p309
I2
sS"'greeing"
p310
I2
sS'maladies'
p311
I3
sS'hearing'
p312
I2
sS'workings'
p313
I2
sS'featured'
p314
I2
sS'another'
p315
I3
sS'sober'
p316
I3
sS'filching'
p317
I2
sS'exchequer'
p318
I3
sS'usurer'
p319
I3
sS'their'
p320
I1
sS'top'
p321
I1
sS'hawks'
p322
I1
sS'millioned'
p323
I2
sS'master'
p324
I2
sS'too'
p325
I1
sS'dwell'
p326
I1
sS'bodys'
p327
I2
sS'hearst'
p328
I1
sS'bitter'
p329
I2
sS'feathers'
p330
I2
sS'griefs'
p331
I1
sS'took'
p332
I1
sS'wisdom'
p333
I2
sS'wardrobe'
p334
I2
sS"youth's"
p335
I1
sS'character'
p336
I3
sS'begins'
p337
I2
sS'distance'
p338
I2
sS'coward'
p339
I2
sS"mother's"
p340
I2
sS'bitterness'
p341
I3
sS'idly'
p342
I2
sS'matter'
p343
I2
sS'idle'
p344
I2
sS'inheritors'
p345
I4
sS'flame'
p346
I1
sS'speaking'
p347
I2
sS'deserving'
p348
I3
sS'knights'
p349
I1
sS'feeling'
p350
I2
sS'powers'
p351
I2
sS'swift-footed'
p352
I3
sS'perspective'
p353
I3
sS'fashion'
p354
I2
sS'sees'
p355
I1
sS'hue'
p356
I1
sS"mind's"
p357
I1
sS'modern'
p358
I2
sS'mind'
p359
I1
sS'mine'
p360
I1
sS'loathsome'
p361
I2
sS'manner'
p362
I2
sS'bewailed'
p363
I2
sS"deserv'st"
p364
I2
sS'churl'
p365
I1
sS'seem'
p366
I1
sS'seek'
p367
I1
sS'tells'
p368
I1
sS'contents'
p369
I2
sS'praising'
p370
I2
sS'strength'
p371
I1
sS'snow'
p372
I1
sS'chest'
p373
I1
sS'subjects'
p374
I2
sS'scaped'
p375
I1
sS'laughed'
p376
I1
sS'pilgrimage'
p377
I3
sS'rider'
p378
I2
sS'maiden'
p379
I2
sS'though'
p380
I1
sS'object'
p381
I2
sS'what'
p382
I1
sS'dulling'
p383
I2
sS'errors'
p384
I2
sS'disarmed'
p385
I2
sS'grave'
p386
I1
sS'shalt'
p387
I1
sS'constancy'
p388
I3
sS'hides'
p389
I1
sS'foist'
p390
I1
sS'flow'
p391
I1
sS'breathes'
p392
I1
sS'spend'
p393
I1
sS'points'
p394
I1
sS'sum'
p395
I1
sS'fitted'
p396
I2
sS'reserve'
p397
I2
sS'discontent'
p398
I3
sS'bait'
p399
I1
sS'queen'
p400
I1
sS'ending'
p401
I2
sS'poison'
p402
I2
sS'earth'
p403
I1
sS'bail'
p404
I1
sS'enjoyed'
p405
I2
sS'touches'
p406
I2
sS'busy'
p407
I2
sS'proposed'
p408
I2
sS'spite'
p409
I1
sS"woman's"
p410
I2
sS'spites'
p411
I1
sS'cupid'
p412
I2
sS'mens'
p413
I1
sS'bliss'
p414
I1
sS'touched'
p415
I1
sS'rich'
p416
I1
sS'pursuing'
p417
I3
sS'mend'
p418
I1
sS'wandrest'
p419
I2
sS"'thou"
p420
I1
sS'soundless'
p421
I2
sS'borrowed'
p422
I2
sS'do'
p423
I2
sS'blenches'
p424
I2
sS'forsworn'
p425
I2
sS'stop'
p426
I1
sS'perceive'
p427
I2
sS'leisure'
p428
I2
sS'raiment'
p429
I2
sS'gored'
p430
I1
sS'bootless'
p431
I2
sS'despite'
p432
I2
sS'report'
p433
I2
sS'saturn'
p434
I2
sS'seemly'
p435
I2
sS'runs'
p436
I1
sS'bar'
p437
I1
sS"o'er"
p438
I1
sS'thrusts'
p439
I1
sS'public'
p440
I2
sS'twice'
p441
I1
sS'eyelids'
p442
I2
sS'esteeming'
p443
I3
sS'hasten'
p444
I2
sS'steal'
p445
I1
sS'farther'
p446
I2
sS'unprovident'
p447
I4
sS'penance'
p448
I2
sS"wond'ring"
p449
I2
sS'unrespected'
p450
I3
sS'fair'
p451
I1
sS'habit'
p452
I2
sS'imitate'
p453
I3
sS'proclaims'
p454
I2
sS'depends'
p455
I2
sS'corrupt'
p456
I2
sS'best'
p457
I1
sS'subject'
p458
I2
sS'said'
p459
I1
sS'temptation'
p460
I3
sS"bett'ring"
p461
I2
sS'away'
p462
I2
sS'afloat'
p463
I2
sS'bier'
p464
I1
sS'injuries'
p465
I3
sS'wilful-slow'
p466
I3
sS'mud'
p467
I1
sS'score'
p468
I1
sS'finger'
p469
I2
sS'pebbled'
p470
I2
sS'scorn'
p471
I1
sS'drawn'
p472
I1
sS'enlighten'
p473
I3
sS'preserve'
p474
I2
sS'warrior'
p475
I2
sS'we'
p476
I1
sS'men'
p477
I1
sS'terms'
p478
I1
sS'parallels'
p479
I3
sS'nature'
p480
I2
sS'lover'
p481
I2
sS'weak'
p482
I1
sS'ignorance'
p483
I3
sS'religious'
p484
I3
sS'authorizing'
p485
I4
sS'disdaineth'
p486
I3
sS'wear'
p487
I1
sS'diest'
p488
I1
sS'news'
p489
I1
sS'debt'
p490
I1
sS'pity'
p491
I2
sS'foes'
p492
I1
sS'goddess'
p493
I2
sS'accident'
p494
I3
sS'disdain'
p495
I2
sS'fault'
p496
I1
sS'ill'
p497
I1
sS'against'
p498
I2
sS'brag'
p499
I1
sS'receives'
p500
I2
sS'faces'
p501
I2
sS'exceeds'
p502
I2
sS'expense'
p503
I2
sS'groans'
p504
I1
sS'asked'
p505
I1
sS'vexed'
p506
I1
sS'honouring'
p507
I3
sS'burthen'
p508
I2
sS'height'
p509
I1
sS'hers'
p510
I1
sS'springs'
p511
I1
sS'trust'
p512
I1
sS'heals'
p513
I1
sS'speak'
p514
I1
sS'petty'
p515
I2
sS'unhappily'
p516
I4
sS'puts'
p517
I1
sS'hues'
p518
I1
sS'time-bettering'
p519
I4
sS'three'
p520
I1
sS'been'
p521
I1
sS'particulars'
p522
I4
sS'twain'
p523
I1
sS'presagers'
p524
I3
sS'interest'
p525
I3
sS'incertainty'
p526
I4
sS'privilege'
p527
I3
sS'lovely'
p528
I2
sS'thrice'
p529
I1
sS'idol'
p530
I2
sS'life'
p531
I1
sS"brav'ry"
p532
I2
sS'easy'
p533
I2
sS'erred'
p534
I1
sS'drugs'
p535
I1
sS'feedst'
p536
I1
sS'decrepit'
p537
I3
sS'dote'
p538
I1
sS'child'
p539
I1
sS'catch'
p540
I1
sS"ne'er-cloying"
p541
I3
sS'doth'
p542
I1
sS'erst'
p543
I1
sS'gracious'
p544
I2
sS'physician'
p545
I3
sS'east'
p546
I1
sS'gentle'
p547
I2
sS'weret'
p548
I2
sS'air'
p549
I1
sS'lesser'
p550
I2
sS'ugly'
p551
I2
sS'near'
p552
I1
sS'suppose'
p553
I2
sS'aid'
p554
I1
sS'voice'
p555
I1
sS'weakens'
p556
I2
sS'recured'
p557
I2
sS'is'
p558
I1
sS're-survey'
p559
I3
sS'it'
p560
I1
sS'defeated'
p561
I2
sS'shame'
p562
I1
sS'to-morrow'
p563
I3
sS'splendour'
p564
I2
sS'in'
p565
I1
sS'bounteous'
p566
I3
sS'if'
p567
I1
sS'grown'
p568
I1
sS'wooing'
p569
I2
sS'memorial'
p570
I4
sS'lacking'
p571
I2
sS'cools'
p572
I1
sS'patent'
p573
I2
sS'suggest'
p574
I2
sS'make'
p575
I1
sS'wound'
p576
I1
sS"lords'"
p577
I1
sS'beside'
p578
I2
sS"th'"
p579
I1
sS'several'
p580
I3
sS'grows'
p581
I1
sS'entitled'
p582
I3
sS'lusty'
p583
I2
sS'fairly'
p584
I2
sS'thereof'
p585
I2
sS'oersways'
p586
I2
sS'natures'
p587
I2
sS'tops'
p588
I1
sS'evil'
p589
I2
sS'hand'
p590
I1
sS'delight'
p591
I2
sS'supposing'
p592
I3
sS'jealous'
p593
I2
sS'bequest'
p594
I2
sS'blamed'
p595
I1
sS'tune'
p596
I1
sS'censures'
p597
I2
sS'kept'
p598
I1
sS'thy'
p599
I1
sS'singleness'
p600
I3
sS'askance'
p601
I2
sS'possessed'
p602
I2
sS'humble'
p603
I2
sS'inherit'
p604
I3
sS'ocean'
p605
I2
sS'ragged'
p606
I2
sS'quest'
p607
I1
sS'greatest'
p608
I1
sS'incapable'
p609
I4
sS'mother'
p610
I2
sS'hearts'
p611
I1
sS'the'
p612
I1
sS'cure'
p613
I1
sS'yours'
p614
I1
sS'left'
p615
I1
sS'just'
p616
I1
sS'wasteful'
p617
I2
sS'yea'
p618
I1
sS"poet's"
p619
I2
sS'unfair'
p620
I2
sS'repose'
p621
I2
sS'verses'
p622
I2
sS'maketh'
p623
I2
sS'thanks'
p624
I1
sS'swears'
p625
I1
sS'prognosticate'
p626
I4
sS'plight'
p627
I1
sS'yet'
p628
I1
sS'succeeding'
p629
I3
sS'vices'
p630
I2
sS'adding'
p631
I2
sS'strangle'
p632
I2
sS'keepst'
p633
I1
sS'dearer'
p634
I2
sS'compeers'
p635
I2
sS'had'
p636
I1
sS'about'
p637
I2
sS'alchemy'
p638
I3
sS'belongs'
p639
I2
sS'beloved'
p640
I3
sS'prison'
p641
I2
sS'hap'
p642
I1
sS'pitiful'
p643
I3
sS'save'
p644
I1
sS'gave'
p645
I1
sS"others'"
p646
I2
sS'which'
p647
I1
sS'dignity'
p648
I3
sS'reviewest'
p649
I3
sS'birth'
p650
I1
sS'wanting'
p651
I2
sS'shadow'
p652
I2
sS'dreams'
p653
I1
sS"picture's"
p654
I2
sS'desire'
p655
I2
sS'brought'
p656
I1
sS"feed'st"
p657
I1
sS'gift'
p658
I1
sS'new-found'
p659
I2
sS'vilest'
p660
I2
sS'offices'
p661
I3
sS'night'
p662
I1
sS'hung'
p663
I1
sS'antique'
p664
I2
sS'dyers'
p665
I2
sS'right'
p666
I1
sS'old'
p667
I1
sS'flatter'
p668
I2
sS'all-oblivious'
p669
I4
sS'deaf'
p670
I1
sS'short-numbered'
p671
I3
sS'dead'
p672
I1
sS'born'
p673
I1
sS'winds'
p674
I1
sS'dear'
p675
I1
sS'pain'
p676
I1
sS'bore'
p677
I1
sS'creep'
p678
I1
sS'enemies'
p679
I3
sS'for'
p680
I1
sS"bosom's"
p681
I2
sS'rehearse'
p682
I2
sS'comments'
p683
I2
sS'foe'
p684
I1
sS'drudge'
p685
I1
sS'bold'
p686
I1
sS'burn'
p687
I1
sS'translated'
p688
I3
sS'forgetst'
p689
I2
sS'shifting'
p690
I2
sS'losing'
p691
I2
sS'eye'
p692
I1
sS'peep'
p693
I1
sS'disdains'
p694
I2
sS'shaken'
p695
I2
sS'takes'
p696
I1
sS'theirs'
p697
I1
sS'coral'
p698
I2
sS'haply'
p699
I2
sS'frailer'
p700
I2
sS'o'
p701
I1
sS'despair'
p702
I2
sS'cherish'
p703
I2
sS'commit'
p704
I2
sS'lacked'
p705
I1
sS'bath'
p706
I1
sS'raised'
p707
I1
sS'contains'
p708
I2
sS'dials'
p709
I1
sS'presence'
p710
I2
sS'civil'
p711
I2
sS'pays'
p712
I1
sS'tract'
p713
I1
sS'delighted'
p714
I3
sS'son'
p715
I1
sS'down'
p716
I1
sS'lies'
p717
I1
sS'refined'
p718
I2
sS"pour'st"
p719
I1
sS'often'
p720
I2
sS'strangely'
p721
I2
sS'despised'
p722
I2
sS'jealousy'
p723
I3
sS'sovereign'
p724
I3
sS'tame'
p725
I1
sS'virgin'
p726
I2
sS'way'
p727
I1
sS'call'
p728
I1
sS'was'
p729
I1
sS'war'
p730
I1
sS'carcanet'
p731
I3
sS'head'
p732
I1
sS'faring'
p733
I2
sS'form'
p734
I1
sS'afresh'
p735
I2
sS'crown'
p736
I1
sS'tigers'
p737
I2
sS'remover'
p738
I3
sS'fore'
p739
I1
sS'back'
p740
I1
sS'heinous'
p741
I2
sS'garments'
p742
I2
sS"slander's"
p743
I2
sS'perfumed'
p744
I2
sS'odours'
p745
I2
sS'astonished'
p746
I3
sS'blindness'
p747
I2
sS'removed'
p748
I2
sS'true'
p749
I1
sS'deepest'
p750
I2
sS'fort'
p751
I1
sS'absent'
p752
I2
sS'lilies'
p753
I2
sS'captive'
p754
I2
sS'extremity'
p755
I4
sS"for't"
p756
I1
sS'bids'
p757
I1
sS'ruined'
p758
I1
sS'crystal'
p759
I2
sS'unfathered'
p760
I3
sS'adore'
p761
I2
sS'lays'
p762
I1
sS'engraft'
p763
I2
sS'bide'
p764
I1
sS'latch'
p765
I1
sS'trim'
p766
I1
sS'proved'
p767
I1
sS'sight'
p768
I1
sS'nought'
p769
I1
sS'sinful'
p770
I2
sS'steep-up'
p771
I2
sS"beauty's"
p772
I2
sS'huswife'
p773
I2
sS'sometime'
p774
I2
sS'subsist'
p775
I2
sS'shines'
p776
I1
sS'widows'
p777
I2
sS'check'
p778
I1
sS'posting'
p779
I2
sS'willingly'
p780
I3
sS'pipe'
p781
I1
sS'dying'
p782
I2
sS'no'
p783
I2
sS'excel'
p784
I2
sS"lov'st"
p785
I1
sS'actor'
p786
I2
sS'tis'
p787
I1
sS'thriftless'
p788
I2
sS'despising'
p789
I3
sS'falsely'
p790
I2
sS'papers'
p791
I2
sS'tie'
p792
I1
sS'vanished'
p793
I2
sS'smell'
p794
I1
sS'eternity'
p795
I4
sS'picture'
p796
I2
sS'neer-cloying'
p797
I3
sS'intend'
p798
I2
sS'phoenix'
p799
I2
sS'delivered'
p800
I3
sS'dies'
p801
I1
sS'welcome'
p802
I2
sS'first-born'
p803
I2
sS'present-absent'
p804
I4
sS'fell'
p805
I1
sS'reign'
p806
I1
sS'rolling'
p807
I2
sS'pierced'
p808
I1
sS'died'
p809
I1
sS'wrackful'
p810
I2
sS'to-day'
p811
I1
sS'longer'
p812
I2
sS'blushing'
p813
I2
sS'daily'
p814
I2
sS'beds'
p815
I1
sS'cheater'
p816
I2
sS'teeth'
p817
I1
sS'controlling'
p818
I3
sS'buriest'
p819
I2
sS'dust'
p820
I1
sS'restored'
p821
I2
sS'songs'
p822
I1
sS'ensconce'
p823
I2
sS'whoever'
p824
I3
sS"perceiv'st"
p825
I2
sS'souls'
p826
I1
sS'vermilion'
p827
I3
sS'engrafted'
p828
I3
sS'leads'
p829
I1
sS'robbing'
p830
I2
sS'idolatry'
p831
I4
sS'abundant'
p832
I3
sS'retention'
p833
I3
sS'doom'
p834
I1
sS'praises'
p835
I2
sS'father'
p836
I2
sS'kind-hearted'
p837
I3
sS'vex'
p838
I1
sS'charge'
p839
I1
sS'praised'
p840
I1
sS'glad'
p841
I1
sS'suffered'
p842
I2
sS'furrows'
p843
I2
sS'me'
p844
I1
sS'strumpeted'
p845
I3
sS'greeing'
p846
I2
sS'string'
p847
I1
sS'advantage'
p848
I3
sS'denied'
p849
I2
sS'none'
p850
I1
sS'votary'
p851
I3
sS'mourn'
p852
I1
sS'lest'
p853
I1
sS'advised'
p854
I2
sS'locked'
p855
I1
sS'trouble'
p856
I2
sS'feeble'
p857
I2
sS'cool'
p858
I1
sS"soul's"
p859
I1
sS'perceived'
p860
I2
sS'clouds'
p861
I1
sS'level'
p862
I2
sS'tear'
p863
I1
sS'die'
p864
I1
sS'dig'
p865
I1
sS"best'"
p866
I1
sS'leave'
p867
I1
sS'excellence'
p868
I3
sS'quick'
p869
I1
sS'prevent'
p870
I2
sS'brave'
p871
I1
sS'says'
p872
I1
sS'fearing'
p873
I2
sS"offender's"
p874
I3
sS'double-vantage'
p875
I4
sS'sigh'
p876
I1
sS'wherefore'
p877
I2
sS'cost'
p878
I1
sS'run'
p879
I1
sS'rough'
p880
I1
sS'drinks'
p881
I1
sS'hymn'
p882
I1
sS"fleet'st"
p883
I1
sS'curse'
p884
I1
sS'appear'
p885
I2
sS'ere'
p886
I1
sS'heres'
p887
I1
sS'assistance'
p888
I3
sS'contracted'
p889
I3
sS'favour'
p890
I2
sS'debate'
p891
I2
sS'suspect'
p892
I2
sS'goes'
p893
I1
sS'view'
p894
I1
sS'appeal'
p895
I2
sS'filled'
p896
I1
sS"april's"
p897
I2
sS'prescriptions'
p898
I3
sS'wail'
p899
I1
sS'heavily'
p900
I3
sS'honour'
p901
I1
sS'clerk'
p902
I1
sS'water'
p903
I2
sS'entertain'
p904
I3
sS'alone'
p905
I2
sS'appears'
p906
I2
sS'change'
p907
I1
sS'blunter'
p908
I2
sS'boy'
p909
I1
sS'boast'
p910
I1
sS'my'
p911
I1
sS'guilty'
p912
I2
sS'bow'
p913
I1
sS'spheres'
p914
I1
sS'cloak'
p915
I1
sS'recounting'
p916
I3
sS'stained'
p917
I1
sS'love'
p918
I1
sS'humour'
p919
I1
sS'tempteth'
p920
I2
sS'bloody'
p921
I2
sS'withal'
p922
I2
sS'betraying'
p923
I3
sS'surmount'
p924
I2
sS'swallowed'
p925
I2
sS'weeks'
p926
I1
sS"suff'ring"
p927
I2
sS"o'erworn"
p928
I2
sS'swayst'
p929
I1
sS'wealth'
p930
I1
sS'prove'
p931
I1
sS'sake'
p932
I3
sS'confounded'
p933
I3
sS'angry'
p934
I2
sS'give'
p935
I1
sS'only'
p936
I2
sS'by'
p937
I1
sS'wrongs'
p938
I1
sS'live'
p939
I1
sS'wood'
p940
I1
sS'prey'
p941
I1
sS'memory'
p942
I3
sS'scope'
p943
I1
sS'loving'
p944
I2
sS"love's"
p945
I1
sS'riot'
p946
I2
sS'sessions'
p947
I2
sS'towers'
p948
I2
sS'share'
p949
I1
sS'acceptable'
p950
I4
sS"strength's"
p951
I1
sS'drown'
p952
I1
sS'everywhere'
p953
I3
sS'virtue'
p954
I2
sS'robe'
p955
I1
sS'epitaph'
p956
I3
sS'fly'
p957
I1
sS'honey'
p958
I2
sS'sheds'
p959
I1
sS'car'
p960
I1
sS'tresses'
p961
I2
sS'soul'
p962
I1
sS'purge'
p963
I1
sS'hardest'
p964
I2
sS'sour'
p965
I1
sS'can'
p966
I1
sS'stewards'
p967
I2
sS'believed'
p968
I2
sS'making'
p969
I2
sS"prevent'st"
p970
I2
sS'deceased'
p971
I2
sS'breeds'
p972
I1
sS'heart'
p973
I1
sS'dedicated'
p974
I1
sS"servant's"
p975
I2
sS'want'
p976
I1
sS'figure'
p977
I2
sS'predict'
p978
I2
sS'well-tuned'
p979
I3
sS'distillation'
p980
I4
sS'heard'
p981
I1
sS'critic'
p982
I2
sS'purity'
p983
I3
sS"grow'st"
p984
I1
sS"mak'st"
p985
I1
sS'provoke'
p986
I2
sS'stole'
p987
I1
sS'churls'
p988
I1
sS'winter'
p989
I2
sS'allege'
p990
I2
sS'divided'
p991
I3
sS'monuments'
p992
I3
sS'vainly'
p993
I2
sS'pine'
p994
I1
sS"lour'st"
p995
I1
sS'write'
p996
I1
sS'till'
p997
I1
sS'sword'
p998
I1
sS'husbandry'
p999
I3
sS'sworn'
p1000
I1
sS"eye's"
p1001
I1
sS'map'
p1002
I1
sS'mar'
p1003
I1
sS'where-through'
p1004
I2
sS'may'
p1005
I1
sS'use'
p1006
I1
sS'spot'
p1007
I1
sS'needs'
p1008
I1
sS'mad'
p1009
I1
sS'courses'
p1010
I2
sS'date'
p1011
I1
sS'end'
p1012
I1
sS'hateth'
p1013
I2
sS'flourish'
p1014
I2
sS'grow'
p1015
I1
sS'man'
p1016
I1
sS'temperate'
p1017
I3
sS'neck'
p1018
I1
sS'liquid'
p1019
I2
sS'candles'
p1020
I2
sS'needy'
p1021
I2
sS'so'
p1022
I1
sS'odour'
p1023
I2
sS'deceive'
p1024
I2
sS'thorns'
p1025
I1
sS'tall'
p1026
I1
sS'increase'
p1027
I2
sS'augurs'
p1028
I2
sS'serving'
p1029
I2
sS'receivest'
p1030
I3
sS'food'
p1031
I1
sS'indeed'
p1032
I2
sS'forfeit'
p1033
I2
sS'wishing'
p1034
I2
sS'years'
p1035
I1
sS'course'
p1036
I1
sS'pitch'
p1037
I1
sS'whats'
p1038
I1
sS'cold'
p1039
I1
sS'still'
p1040
I1
sS'birds'
p1041
I1
sS'trifle'
p1042
I2
sS'limbs'
p1043
I1
sS'derive'
p1044
I2
sS'thank'
p1045
I1
sS'faults'
p1046
I1
sS'muses'
p1047
I2
sS'spur'
p1048
I1
sS'torn'
p1049
I1
sS'curls'
p1050
I1
sS"offence's"
p1051
I3
sS'maid'
p1052
I1
sS'tillage'
p1053
I2
sS"play'st"
p1054
I1
sS'policy'
p1055
I3
sS"stol'n"
p1056
I1
sS'main'
p1057
I1
sS'conquest'
p1058
I2
sS'correspondence'
p1059
I4
sS'prime'
p1060
I1
sS'truest'
p1061
I2
sS'equipage'
p1062
I3
sS'thereby'
p1063
I2
sS'sooner'
p1064
I2
sS'bound'
p1065
I1
sS'records'
p1066
I2
sS'half'
p1067
I1
sS'not'
p1068
I1
sS'now'
p1069
I1
sS'twilight'
p1070
I2
sS'nor'
p1071
I1
sS'wont'
p1072
I1
sS'term'
p1073
I1
sS'name'
p1074
I1
sS'servant'
p1075
I2
sS'times'
p1076
I1
sS'drop'
p1077
I1
sS'veins'
p1078
I1
sS'seldom'
p1079
I2
sS'oertake'
p1080
I2
sS'surfeit'
p1081
I2
sS"another's"
p1082
I3
sS'yhave'
p1083
I1
sS'receipt'
p1084
I2
sS'richly'
p1085
I2
sS'fever'
p1086
I2
sS'farewell'
p1087
I2
sS'yield'
p1088
I1
sS'year'
p1089
I1
sS'hymns'
p1090
I1
sS'living'
p1091
I2
sS'shown'
p1092
I1
sS'mouths'
p1093
I1
sS'space'
p1094
I1
sS'profit'
p1095
I4
sS'abide'
p1096
I2
sS'looking'
p1097
I2
sS'boundless'
p1098
I2
sS'grecian'
p1099
I2
sS'receiving'
p1100
I3
sS'correct'
p1101
I2
sS'shows'
p1102
I1
sS'worthiness'
p1103
I3
sS'state'
p1104
I1
sS'siege'
p1105
I1
sS'cars'
p1106
I1
sS'sweet-seasoned'
p1107
I3
sS'spies'
p1108
I1
sS'rebel'
p1109
I2
sS'plea'
p1110
I1
sS"feel'st"
p1111
I1
sS'care'
p1112
I1
sS'advance'
p1113
I2
sS"age's"
p1114
I2
sS'embassage'
p1115
I3
sS"widow's"
p1116
I2
sS'contented'
p1117
I3
sS'kingdoms'
p1118
I2
sS'honest'
p1119
I2
sS'motion'
p1120
I2
sS'thing'
p1121
I1
sS'thine'
p1122
I1
sS'place'
p1123
I1
sS'recompense'
p1124
I3
sS'sufferance'
p1125
I3
sS'widow'
p1126
I2
sS'star'
p1127
I1
sS'think'
p1128
I1
sS'frequent'
p1129
I2
sS'first'
p1130
I1
sS'blind'
p1131
I1
sS'mayst'
p1132
I1
sS'coming'
p1133
I2
sS"lovers'"
p1134
I2
sS'nativity'
p1135
I4
sS'consecrate'
p1136
I3
sS'fast'
p1137
I1
sS'directly'
p1138
I3
sS'habitation'
p1139
I4
sS'carry'
p1140
I2
sS'ill-used'
p1141
I2
sS'sounds'
p1142
I1
sS'fight'
p1143
I1
sS'open'
p1144
I2
sS'affords'
p1145
I2
sS'millions'
p1146
I2
sS'interchange'
p1147
I3
sS'little'
p1148
I2
sS'checked'
p1149
I1
sS'silent'
p1150
I2
sS'breed'
p1151
I1
sS'fiery'
p1152
I3
sS'bounty'
p1153
I2
sS'white'
p1154
I1
sS'utmost'
p1155
I2
sS"tiger's"
p1156
I2
sS'friend'
p1157
I1
sS'gives'
p1158
I1
sS'gaudy'
p1159
I2
sS'eyes'
p1160
I1
sS'pomp'
p1161
I1
sS'grant'
p1162
I1
sS'blazon'
p1163
I2
sS'that'
p1164
I1
sS'brains'
p1165
I1
sS"men's"
p1166
I1
sS'proving'
p1167
I2
sS'alas'
p1168
I2
sS'eyed'
p1169
I1
sS'girded'
p1170
I2
sS'copy'
p1171
I2
sS'than'
p1172
I1
sS"here's"
p1173
I1
sS'wide'
p1174
I1
sS'feeds'
p1175
I1
sS'wert'
p1176
I1
sS'require'
p1177
I2
sS'folly'
p1178
I2
sS'transferred'
p1179
I2
sS'were'
p1180
I1
sS'happy'
p1181
I2
sS'and'
p1182
I1
sS'angel'
p1183
I2
sS'slay'
p1184
I1
sS'correction'
p1185
I3
sS'confessed'
p1186
I2
sS'turned'
p1187
I1
sS'argument'
p1188
I3
sS'jewels'
p1189
I2
sS'voices'
p1190
I2
sS'entombed'
p1191
I2
sS'worms'
p1192
I1
sS'say'
p1193
I1
sS'perfumes'
p1194
I2
sS'buried'
p1195
I1
sS'foiled'
p1196
I1
sS'anger'
p1197
I2
sS'sap'
p1198
I1
sS'pry'
p1199
I1
sS'any'
p1200
I2
sS'elsewhere'
p1201
I2
sS'defaced'
p1202
I1
sS'describe'
p1203
I2
sS'mourners'
p1204
I2
sS'aside'
p1205
I2
sS'note'
p1206
I1
sS'wretch'
p1207
I1
sS'take'
p1208
I1
sS'resembling'
p1209
I3
sS'haste'
p1210
I1
sS'strengths'
p1211
I1
sS'blunt'
p1212
I1
sS'becoming'
p1213
I3
sS'flattered'
p1214
I2
sS'urge'
p1215
I1
sS'begin'
p1216
I2
sS'sure'
p1217
I1
sS'altered'
p1218
I2
sS'tallies'
p1219
I2
sS'knew'
p1220
I1
sS'clearer'
p1221
I2
sS'paid'
p1222
I1
sS'forgetful'
p1223
I3
sS'unkindness'
p1224
I3
sS'staineth'
p1225
I2
sS'flatterer'
p1226
I3
sS'successive'
p1227
I3
sS'winters'
p1228
I2
sS'spendst'
p1229
I1
sS'pricked'
p1230
I1
sS'proud'
p1231
I1
sS'hungry'
p1232
I2
sS'wing'
p1233
I1
sS"perfect'st"
p1234
I2
sS'sunset'
p1235
I2
sS'amis'
p1236
I2
sS'glutton'
p1237
I2
sS'hear'
p1238
I1
sS'sourest'
p1239
I2
sS'laws'
p1240
I1
sS'shop'
p1241
I1
sS'show'
p1242
I1
sS'cheap'
p1243
I1
sS'merit'
p1244
I2
sS'trespass'
p1245
I2
sS'bright'
p1246
I1
sS'untold'
p1247
I2
sS'tend'
p1248
I1
sS'ground'
p1249
I1
sS'slow'
p1250
I1
sS'woos'
p1251
I1
sS'unkind'
p1252
I2
sS'stormy'
p1253
I2
sS'title'
p1254
I2
sS'treasure'
p1255
I2
sS'robs'
p1256
I1
sS'behind'
p1257
I2
sS'crime'
p1258
I1
sS'tears'
p1259
I1
sS'going'
p1260
I2
sS'black'
p1261
I1
sS'nurse'
p1262
I1
sS'partake'
p1263
I2
sS'stain'
p1264
I1
sS'wilfully'
p1265
I3
sS'consumst'
p1266
I2
sS'hindmost'
p1267
I2
sS'get'
p1268
I1
sS"'tis"
p1269
I1
sS'limbecks'
p1270
I2
sS'truly'
p1271
I2
sS'cannot'
p1272
I2
sS'nearly'
p1273
I2
sS'dye'
p1274
I1
sS'intermixed'
p1275
I3
sS'closure'
p1276
I2
sS'orphans'
p1277
I2
sS'seeting'
p1278
I2
sS'morning'
p1279
I2
sS'naked'
p1280
I2
sS'miles'
p1281
I1
sS'where'
p1282
I1
sS'husband'
p1283
I2
sS'niggard'
p1284
I2
sS'seas'
p1285
I1
sS'signs'
p1286
I1
sS'bid'
p1287
I1
sS'up'
p1288
I1
sS"fortune's"
p1289
I2
sS'asleep'
p1290
I2
sS'expiate'
p1291
I3
sS'seal'
p1292
I1
sS'salutation'
p1293
I4
sS'sport'
p1294
I1
sS'purest'
p1295
I2
sS'wonder'
p1296
I2
sS'invoked'
p1297
I2
sS'tongue-tied'
p1298
I2
sS'compounds'
p1299
I2
sS'crooked'
p1300
I2
sS'review'
p1301
I2
sS'dateless'
p1302
I2
sS'ornament'
p1303
I3
sS'glorious'
p1304
I3
sS'gainst'
p1305
I1
sS'departest'
p1306
I2
sS'complexion'
p1307
I3
sS'sable'
p1308
I2
sS'import'
p1309
I2
sS'enjoys'
p1310
I2
sS'presage'
p1311
I2
sS'untainted'
p1312
I3
sS'forsake'
p1313
I2
sS'anew'
p1314
I2
sS'needst'
p1315
I1
sS'style'
p1316
I1
sS'pluck'
p1317
I1
sS'blame'
p1318
I1
sS'countenance'
p1319
I3
sS'reigns'
p1320
I1
sS'profitless'
p1321
I3
sS'come'
p1322
I1
sS'grieved'
p1323
I1
sS'dates'
p1324
I1
sS'mans'
p1325
I1
sS'many'
p1326
I2
sS'region'
p1327
I2
sS'quiet'
p1328
I2
sS'dwellers'
p1329
I2
sS'awards'
p1330
I2
sS"sea's"
p1331
I1
sS'duty'
p1332
I2
sS'among'
p1333
I2
sS'unthrifts'
p1334
I2
sS'madness'
p1335
I2
sS'afterwards'
p1336
I3
sS'unthrifty'
p1337
I3
sS'swerving'
p1338
I2
sS'dispatch'
p1339
I2
sS'eisel'
p1340
I2
sS'slain'
p1341
I1
sS'stretched'
p1342
I2
sS'learning'
p1343
I2
sS'disgrace'
p1344
I2
sS'famished'
p1345
I2
sS'boat'
p1346
I1
sS'doctor-like'
p1347
I3
sS'arts'
p1348
I1
sS'lifes'
p1349
I1
sS'self-doing'
p1350
I3
sS'west'
p1351
I1
sS'absence'
p1352
I2
sS'mark'
p1353
I1
sS'breath'
p1354
I1
sS'subscribes'
p1355
I2
sS"self's"
p1356
I1
sS'mars'
p1357
I1
sS'informer'
p1358
I3
sS'straying'
p1359
I2
sS'robbed'
p1360
I1
sS'thousand'
p1361
I2
sS'blessing'
p1362
I2
sS'nobler'
p1363
I1
sS'wake'
p1364
I1
sS'external'
p1365
I3
sS'frantic-mad'
p1366
I3
sS'masonry'
p1367
I3
sS'careful'
p1368
I2
sS'spirit'
p1369
I2
sS'those'
p1370
I1
sS'case'
p1371
I1
sS'profane'
p1372
I2
sS'oer-green'
p1373
I2
sS'these'
p1374
I1
sS'sheaves'
p1375
I1
sS'compile'
p1376
I2
sS'cast'
p1377
I1
sS'mightier'
p1378
I2
sS'graven'
p1379
I2
sS'cancelled'
p1380
I2
sS'situation'
p1381
I4
sS'endured'
p1382
I2
sS'anchored'
p1383
I2
sS'forbear'
p1384
I2
sS'endowed'
p1385
I2
sS'brow'
p1386
I1
sS'whoeer'
p1387
I2
sS'gluttoning'
p1388
I3
sS'middle'
p1389
I2
sS'discloses'
p1390
I3
sS'limping'
p1391
I2
sS'commanded'
p1392
I3
sS'fame'
p1393
I1
sS'different'
p1394
I3
sS'harsh'
p1395
I1
sS"tyrants'"
p1396
I2
sS'april'
p1397
I2
sS'pay'
p1398
I1
sS'same'
p1399
I1
sS'injurious'
p1400
I4
sS'shifts'
p1401
I1
sS'enrich'
p1402
I2
sS'streams'
p1403
I1
sS"'truth"
p1404
I1
sS'wires'
p1405
I1
sS'sickness'
p1406
I2
sS'tyrannous'
p1407
I3
sS'defy'
p1408
I2
sS'weed'
p1409
I1
sS'fruit'
p1410
I1
sS'scorned'
p1411
I1
sS'extern'
p1412
I2
sS'changing'
p1413
I2
sS'weep'
p1414
I1
sS'vowed'
p1415
I1
sS'vantage'
p1416
I2
sS'slanders'
p1417
I2
sS'dear-purchased'
p1418
I3
sS'throned'
p1419
I1
sS'random'
p1420
I2
sS'vacant'
p1421
I2
sS'confounds'
p1422
I2
sS'costs'
p1423
I1
sS'relief'
p1424
I2
sS'justify'
p1425
I3
sS'distills'
p1426
I2
sS'summer'
p1427
I2
sS'ransoms'
p1428
I2
sS'being'
p1429
I2
sS'when'
p1430
I1
sS'weeds'
p1431
I1
sS'shamefully'
p1432
I3
sS'over-plus'
p1433
I3
sS'imprint'
p1434
I2
sS'bareness'
p1435
I2
sS'cease'
p1436
I1
sS'disperse'
p1437
I2
sS'aspect'
p1438
I2
sS'touch'
p1439
I1
sS'speed'
p1440
I1
sS'guides'
p1441
I1
sS'blow'
p1442
I1
sS'renewed'
p1443
I2
sS'unwooed'
p1444
I2
sS'womans'
p1445
I2
sS'thinking'
p1446
I2
sS'rose'
p1447
I1
sS'seems'
p1448
I1
sS"summer's"
p1449
I2
sS"summers'"
p1450
I2
sS'verse'
p1451
I1
sS'suppressed'
p1452
I2
sS'worthier'
p1453
I2
sS'dully'
p1454
I2
sS'thoughts'
p1455
I1
sS'valley-fountain'
p1456
I4
sS'struck'
p1457
I1
sS'kingdom'
p1458
I2
sS'frown'
p1459
I1
sS'kills'
p1460
I1
sS'read'
p1461
I1
sS'offence'
p1462
I2
sS'sums'
p1463
I1
sS'dart'
p1464
I1
sS'basest'
p1465
I2
sS'traffic'
p1466
I2
sS'confined'
p1467
I1
sS'world'
p1468
I1
sS'reap'
p1469
I1
sS'dare'
p1470
I1
sS'acquainted'
p1471
I3
sS'fortune'
p1472
I2
sS'achieve'
p1473
I2
sS'eithers'
p1474
I2
sS'miracle'
p1475
I3
sS'benefit'
p1476
I3
sS'beguiled'
p1477
I1
sS'either'
p1478
I2
sS'robbery'
p1479
I3
sS'offenders'
p1480
I3
sS'tombed'
p1481
I1
sS'fulfil'
p1482
I2
sS'falsehood'
p1483
I2
sS'elements'
p1484
I3
sS'table'
p1485
I2
sS'images'
p1486
I3
sS'perceivst'
p1487
I2
sS'divine'
p1488
I2
sS'thinks'
p1489
I1
sS'reasons'
p1490
I2
sS'gross'
p1491
I1
sS'bones'
p1492
I1
sS'ashes'
p1493
I2
sS'noon'
p1494
I1
sS'deformedst'
p1495
I2
sS'stops'
p1496
I1
sS'moon'
p1497
I1
sS'forgoing'
p1498
I3
sS'expressing'
p1499
I3
sS'self-loving'
p1500
I3
sS'knife'
p1501
I1
sS'destroys'
p1502
I2
sS'ever-fixed'
p1503
I3
sS'power'
p1504
I2
sS'seconds'
p1505
I2
sS'strained'
p1506
I1
sS'olives'
p1507
I2
sS'forgetfulness'
p1508
I4
sS'broken'
p1509
I2
sS"o'er-green"
p1510
I2
sS'assemble'
p1511
I3
sS'throw'
p1512
I1
sS'renewest'
p1513
I2
sS'on'
p1514
I1
sS'stone'
p1515
I1
sS'subdued'
p1516
I2
sS'zealous'
p1517
I2
sS'of'
p1518
I1
sS'choirs'
p1519
I2
sS'feil'
p1520
I1
sS'greater'
p1521
I2
sS'whence'
p1522
I1
sS'journey'
p1523
I2
sS'wolf'
p1524
I1
sS'stand'
p1525
I1
sS'act'
p1526
I1
sS'mixed'
p1527
I1
sS'bond'
p1528
I1
sS'or'
p1529
I1
sS'imitated'
p1530
I4
sS'ladies'
p1531
I2
sS'long-lived'
p1532
I2
sS'burning'
p1533
I2
sS'weighs'
p1534
I1
sS'anothers'
p1535
I3
sS'image'
p1536
I2
sS'blessed'
p1537
I2
sS'rising'
p1538
I2
sS'lively'
p1539
I2
sS'dreaming'
p1540
I2
sS'blesses'
p1541
I2
sS'your'
p1542
I1
sS'buds'
p1543
I1
sS"oaths'"
p1544
I1
sS'her'
p1545
I1
sS'hes'
p1546
I1
sS'there'
p1547
I1
sS'disposed'
p1548
I2
sS'desert'
p1549
I2
sS'stealth'
p1550
I1
sS'gaze'
p1551
I1
sS'lions'
p1552
I1
sS'low'
p1553
I1
sS'stars'
p1554
I1
sS'house'
p1555
I1
sS'groan'
p1556
I1
sS'wits'
p1557
I1
sS"dyer's"
p1558
I2
sS'strikes'
p1559
I1
sS'meetness'
p1560
I2
sS'land'
p1561
I1
sS'brain'
p1562
I1
sS'makst'
p1563
I1
sS'growst'
p1564
I1
sS'with'
p1565
I1
sS'faster'
p1566
I2
sS'abused'
p1567
I2
sS'applying'
p1568
I3
sS'naming'
p1569
I2
sS'rage'
p1570
I1
sS'niggarding'
p1571
I3
sS'self-same'
p1572
I2
sS'impute'
p1573
I2
sS'abuses'
p1574
I3
sS'define'
p1575
I2
sS'strongly'
p1576
I2
sS'enfeebled'
p1577
I1
sS'intents'
p1578
I2
sS'palate'
p1579
I2
sS'surly'
p1580
I2
sS'taste'
p1581
I1
sS'ah'
p1582
I1
sS'accents'
p1583
I2
sS'stealing'
p1584
I2
sS'am'
p1585
I1
sS'deep'
p1586
I1
sS'an'
p1587
I1
sS'toiled'
p1588
I1
sS'excusing'
p1589
I3
sS'deem'
p1590
I1
sS'carved'
p1591
I1
sS'walks'
p1592
I1
sS'ay'
p1593
I1
sS'horse'
p1594
I1
sS'spends'
p1595
I1
sS'fill'
p1596
I1
sS'again'
p1597
I2
sS'proudly'
p1598
I2
sS"judgment's"
p1599
I2
sS'deserve'
p1600
I2
sS"helen's"
p1601
I2
sS'repent'
p1602
I2
sS'orient'
p1603
I3
sS'taker'
p1604
I2
sS'roses'
p1605
I2
sS'dians'
p1606
I2
sS'you'
p1607
I1
sS'abysm'
p1608
I2
sS'poor'
p1609
I1
sS'oerlook'
p1610
I2
sS'time'
p1611
I1
sS'gifts'
p1612
I1
sS'lovers'
p1613
I2
sS'suited'
p1614
I2
sS'brass'
p1615
I1
sS'celestial'
p1616
I3
sS'sequent'
p1617
I2
sS'building'
p1618
I2
sS'backward'
p1619
I2
sS'remote'
p1620
I2
sS'calls'
p1621
I1
sS'wife'
p1622
I1
sS"life's"
p1623
I1
sS'dyed'
p1624
I1
sS'extant'
p1625
I2
sS'repay'
p1626
I2
sS'hugely'
p1627
I2
sS'treason'
p1628
I2
sS'apparel'
p1629
I3
sS'deservst'
p1630
I2
sS'tanned'
p1631
I1
sS'unset'
p1632
I2
sS'maturity'
p1633
I4
sS'all'
p1634
I1
sS'consider'
p1635
I3
sS'pointing'
p1636
I2
sS'suns'
p1637
I1
sS'forbidden'
p1638
I3
sS'lack'
p1639
I1
sS'neigh'
p1640
I1
sS'bosoms'
p1641
I2
sS'importune'
p1642
I3
sS'seals'
p1643
I1
sS'unrest'
p1644
I2
sS"'gainst"
p1645
I1
sS'forged'
p1646
I1
sS'welfare'
p1647
I2
sS'follow'
p1648
I2
sS'meditation'
p1649
I4
sS'lace'
p1650
I1
sS'children'
p1651
I2
sS'oaths'
p1652
I1
sS'wanton'
p1653
I2
sS'homage'
p1654
I2
sS'sparkling'
p1655
I2
sS'perfectst'
p1656
I2
sS"keep'st"
p1657
I1
sS'to'
p1658
I1
sS'painter'
p1659
I2
sS'th'
p1660
I1
sS'dressing'
p1661
I2
sS'health'
p1662
I1
sS'hideous'
p1663
I3
sS'subtleties'
p1664
I3
sS'sound'
p1665
I1
sS'woman'
p1666
I2
sS'worse'
p1667
I1
sS'song'
p1668
I1
sS'very'
p1669
I2
sS"'will"
p1670
I1
sS'coloured'
p1671
I1
sS'oblation'
p1672
I3
sS'medicine'
p1673
I3
sS'worst'
p1674
I1
sS'minded'
p1675
I2
sS'fall'
p1676
I1
sS'hems'
p1677
I1
sS'difference'
p1678
I3
sS'vouchsafe'
p1679
I2
sS'heaven'
p1680
I2
sS'mothers'
p1681
I2
sS'list'
p1682
I1
sS'large'
p1683
I1
sS'sang'
p1684
I1
sS'plain'
p1685
I1
sS'mistaking'
p1686
I3
sS"t'"
p1687
I0
sS'wantonness'
p1688
I3
sS"i'll"
p1689
I1
sS'quicker'
p1690
I2
sS'ten'
p1691
I1
sS'outworn'
p1692
I2
sS'lascivious'
p1693
I4
sS'past'
p1694
I1
sS'bestowst'
p1695
I2
sS'invention'
p1696
I3
sS'sendst'
p1697
I1
sS'pass'
p1698
I1
sS'harder'
p1699
I2
sS'affable'
p1700
I3
sS'befriends'
p1701
I2
sS'crests'
p1702
I1
sS'creatures'
p1703
I2
sS'conscience'
p1704
I2
sS'gazers'
p1705
I2
sS'dial'
p1706
I2
sS'defence'
p1707
I2
sS'darkness'
p1708
I2
sS'sweetly'
p1709
I2
sS'clock'
p1710
I1
sS'sun'
p1711
I1
sS'wrecked'
p1712
I1
sS'gardens'
p1713
I2
sS'brief'
p1714
I1
sS'prevailed'
p1715
I2
sS'foison'
p1716
I2
sS'ill-wresting'
p1717
I3
sS'learned'
p1718
I2
sS'doting'
p1719
I2
sS'womb'
p1720
I1
sS'quenched'
p1721
I1
sS'counting'
p1722
I2
sS'full'
p1723
I1
sS'ranged'
p1724
I1
sS'love-suit'
p1725
I2
sS'answers'
p1726
I2
sS'revenge'
p1727
I2
sS'hours'
p1728
I1
sS'dregs'
p1729
I1
sS'excess'
p1730
I2
sS'hast'
p1731
I1
sS'depend'
p1732
I2
sS'yellowed'
p1733
I2
sS'respect'
p1734
I2
sS'enmity'
p1735
I3
sS'losses'
p1736
I1
sS'dearths'
p1737
I1
sS'qualify'
p1738
I3
sS'within'
p1739
I2
sS'action'
p1740
I2
sS'steepy'
p1741
I2
sS'sweetness'
p1742
I2
sS"day's"
p1743
I1
sS'depart'
p1744
I2
sS'impiety'
p1745
I4
sS'tendered'
p1746
I2
sS"lion's"
p1747
I2
sS'estimate'
p1748
I3
sS'unthrift'
p1749
I2
sS'self-love'
p1750
I2
sS'all-tyrant'
p1751
I3
sS'proceed'
p1752
I2
sS'cherubins'
p1753
I3
sS'faint'
p1754
I1
sS'two'
p1755
I1
sS'pearl'
p1756
I1
sS'morn'
p1757
I1
sS'soil'
p1758
I1
sS'taken'
p1759
I2
sS'injury'
p1760
I3
sS'more'
p1761
I1
sS'horses'
p1762
I2
sS'wretched'
p1763
I2
sS'unlearned'
p1764
I3
sS'knows'
p1765
I1
sS'delves'
p1766
I1
sS"ow'st"
p1767
I1
sS'foregone'
p1768
I1
sS'spoils'
p1769
I1
sS'excuse'
p1770
I2
sS'lameness'
p1771
I2
sS"dian's"
p1772
I2
sS'broke'
p1773
I1
sS'varying'
p1774
I3
sS'known'
p1775
I1
sS'mounted'
p1776
I2
sS'lilys'
p1777
I2
sS'cunning'
p1778
I2
sS'lust'
p1779
I1
sS'fleece'
p1780
I1
sS'hour'
p1781
I1
sS'besides'
p1782
I2
sS'remain'
p1783
I2
sS'nine'
p1784
I1
sS'learn'
p1785
I1
sS'marble'
p1786
I2
sS'history'
p1787
I3
sS'beautiful'
p1788
I3
sS'compare'
p1789
I2
sS'attainted'
p1790
I3
sS'visage'
p1791
I2
sS'heat'
p1792
I1
sS'lives'
p1793
I1
sS'neglected'
p1794
I3
sS'conspire'
p1795
I2
sS'thievish'
p1796
I2
sS'well-seeing'
p1797
I3
sS'numbers'
p1798
I2
sS'sense'
p1799
I1
sS'phrase'
p1800
I1
sS'dress'
p1801
I1
sS'huge'
p1802
I1
sS'siren'
p1803
I2
sS'early'
p1804
I2
sS'drained'
p1805
I1
sS'rather'
p1806
I2
sS"'thus"
p1807
I1
sS'comfort'
p1808
I2
sS'chopt'
p1809
I1
sS"adder's"
p1810
I2
sS'glowing'
p1811
I1
sS"heart's"
p1812
I1
sS'sacred'
p1813
I2
sS'strong'
p1814
I1
sS'creature'
p1815
I2
sS'simplicity'
p1816
I4
sS'pleasure'
p1817
I2
sS'rude'
p1818
I1
sS'disgraced'
p1819
I1
sS'mended'
p1820
I2
sS'blood'
p1821
I1
sS'faculty'
p1822
I3
sS'replete'
p1823
I2
sS'a'
p1824
I1
sS'refuse'
p1825
I2
sS'short'
p1826
I1
sS'resemble'
p1827
I3
sS'selfs'
p1828
I1
sS'shady'
p1829
I2
sS'register'
p1830
I3
sS'shore'
p1831
I1
sS'shade'
p1832
I1
sS'perjured'
p1833
I2
sS'banks'
p1834
I1
sS'shorn'
p1835
I1
sS"gav'st"
p1836
I1
sS'lasting'
p1837
I2
sS'dream'
p1838
I1
sS"that's"
p1839
I1
sS'recite'
p1840
I2
sS'played'
p1841
I1
sS'help'
p1842
I1
sS'winged'
p1843
I1
sS'flowers'
p1844
I1
sS'stays'
p1845
I1
sS'soon'
p1846
I1
sS'disabled'
p1847
I1
sS'held'
p1848
I1
sS'paper'
p1849
I2
sS'through'
p1850
I1
sS'committed'
p1851
I1
sS'hell'
p1852
I1
sS'smiling'
p1853
I2
sS'suffer'
p1854
I2
sS'saucy'
p1855
I2
sS'merchandized'
p1856
I3
sS'pent'
p1857
I1
sS'but'
p1858
I1
sS'render'
p1859
I2
sS'termed'
p1860
I1
sS'pray'
p1861
I1
sS'inward'
p1862
I2
sS'deeds'
p1863
I1
sS'bosom'
p1864
I2
sS'teeming'
p1865
I2
sS'hounds'
p1866
I1
sS'late'
p1867
I1
sS'resort'
p1868
I2
sS'dross'
p1869
I1
sS'parts'
p1870
I1
sS'threescore'
p1871
I2
sS'ruining'
p1872
I2
sS'self-willed'
p1873
I2
sS'bereft'
p1874
I2
sS'alter'
p1875
I2
sS'crawls'
p1876
I1
sS'fool'
p1877
I1
sS'good'
p1878
I1
sS'return'
p1879
I2
sS'freezings'
p1880
I2
sS'seeking'
p1881
I2
sS'motley'
p1882
I2
sS'distilled'
p1883
I2
sS'ye'
p1884
I3
sS'storm-beaten'
p1885
I3
sS'speechless'
p1886
I2
sS'walls'
p1887
I1
sS'nymphs'
p1888
I1
sS'rank'
p1889
I1
sS'compound'
p1890
I2
sS'foot'
p1891
I1
sS'hunted'
p1892
I2
sS'antiquity'
p1893
I4
sS"mistress'"
p1894
I2
sS'complain'
p1895
I2
sS'likeness'
p1896
I2
sS'imprisoned'
p1897
I3
sS'always'
p1898
I2
sS'truths'
p1899
I1
sS'eloquence'
p1900
I3
sS'did'
p1901
I1
sS'stopped'
p1902
I1
sS'blest'
p1903
I1
sS'found'
p1904
I1
sS'heavy'
p1905
I2
sS"put'st"
p1906
I1
sS'proud-pied'
p1907
I2
sS'bends'
p1908
I1
sS'weight'
p1909
I1
sS'sullied'
p1910
I2
sS'jaws'
p1911
I1
sS'hard'
p1912
I1
sS'oppressed'
p1913
I1
sS'fist'
p1914
I1
sS"nature's"
p1915
I2
sS'beyond'
p1916
I2
sS'incertainties'
p1917
I4
sS'travels'
p1918
I2
sS'flower'
p1919
I2
sS'missed'
p1920
I1
sS'since'
p1921
I1
sS'publish'
p1922
I2
sS'inferior'
p1923
I4
sS'nurseth'
p1924
I2
sS'hill'
p1925
I1
sS'sweetst'
p1926
I1
sS'print'
p1927
I1
sS'darling'
p1928
I2
sS'issue'
p1929
I2
sS'sympathized'
p1930
I3
sS'runst'
p1931
I1
sS'boldness'
p1932
I2
sS'sharpst'
p1933
I1
sS'belied'
p1934
I2
sS'bearing'
p1935
I2
sS'commits'
p1936
I2
sS'fore-bemoaned'
p1937
I4
sS'forgive'
p1938
I2
sS'pleasant'
p1939
I2
sS'reason'
p1940
I2
sS'base'
p1941
I1
sS'impeached'
p1942
I2
sS'put'
p1943
I1
sS'teach'
p1944
I1
sS'reproach'
p1945
I2
sS"excuse'"
p1946
I2
sS"know'st"
p1947
I1
sS'nightly'
p1948
I2
sS'owners'
p1949
I2
sS'service'
p1950
I2
sS'needing'
p1951
I2
sS'rack'
p1952
I1
sS'sicken'
p1953
I2
sS'enough'
p1954
I2
sS'corrupting'
p1955
I3
sS"december's"
p1956
I3
sS'feed'
p1957
I1
sS'behaviour'
p1958
I3
sS'gazed'
p1959
I1
sS'seeming'
p1960
I2
sS'forwards'
p1961
I2
sS'blush'
p1962
I1
sS'feel'
p1963
I1
sS'number'
p1964
I2
sS'breathers'
p1965
I2
sS'elder'
p1966
I2
sS'enlarged'
p1967
I2
sS'revolution'
p1968
I4
sS'done'
p1969
I1
sS'defects'
p1970
I2
sS'dreading'
p1971
I2
sS'stage'
p1972
I1
sS'rents'
p1973
I1
sS'moan'
p1974
I1
sS'guess'
p1975
I1
sS'guest'
p1976
I1
sS'rondure'
p1977
I2
sS'twenty'
p1978
I2
sS'slanderers'
p1979
I3
sS'least'
p1980
I1
sS'hallowed'
p1981
I1
sS'steals'
p1982
I1
sS'passed'
p1983
I1
sS'essays'
p1984
I2
sS'hundred'
p1985
I2
sS'store'
p1986
I1
sS'lease'
p1987
I1
sS'youngly'
p1988
I2
sS'selling'
p1989
I2
sS'imperfect'
p1990
I3
sS'saint'
p1991
I1
sS'longing'
p1992
I2
sS'adonis'
p1993
I3
sS'part'
p1994
I1
sS'bower'
p1995
I2
sS'deceivest'
p1996
I3
sS'believe'
p1997
I2
sS'grace'
p1998
I1
sS'king'
p1999
I1
sS'kind'
p2000
I1
sS'grew'
p2001
I1
sS'vial'
p2002
I2
sS'double'
p2003
I2
sS'anticipate'
p2004
I4
sS'mortgaged'
p2005
I1
sS'grey'
p2006
I1
sS'shallowest'
p2007
I3
sS'youth'
p2008
I1
sS'autumn'
p2009
I2
sS'determined'
p2010
I3
sS'contrary'
p2011
I3
sS'supposed'
p2012
I3
sS'toward'
p2013
I2
sS'restful'
p2014
I2
sS'tongues'
p2015
I1
sS'trifles'
p2016
I2
sS'ages'
p2017
I2
sS'defect'
p2018
I2
sS'livery'
p2019
I3
sS'new-fired'
p2020
I2
sS'alike'
p2021
I2
sS'showers'
p2022
I2
sS'travail'
p2023
I2
sS'fading'
p2024
I2
sS'sensual'
p2025
I3
sS'sell'
p2026
I1
sS'mountain'
p2027
I2
sS'nights'
p2028
I1
sS'built'
p2029
I1
sS'dancing'
p2030
I2
sS'self'
p2031
I1
sS'onset'
p2032
I2
sS'without'
p2033
I2
sS'lip'
p2034
I1
sS'finding'
p2035
I2
sS'chary'
p2036
I2
sS"art's"
p2037
I1
sS'play'
p2038
I1
sS'towards'
p2039
I2
sS'reckon'
p2040
I2
sS'sets'
p2041
I1
sS'unswayed'
p2042
I2
sS'unused'
p2043
I2
sS'most'
p2044
I1
sS'amazeth'
p2045
I3
sS'nothing'
p2046
I2
sS'seasons'
p2047
I2
sS"o'ercharged"
p2048
I2
sS'wastes'
p2049
I1
sS'measured'
p2050
I2
sS'stands'
p2051
I1
sS'chronicle'
p2052
I3
sS'feasting'
p2053
I2
sS'windows'
p2054
I2
sS'arising'
p2055
I3
sS'clear'
p2056
I1
sS'sometimes'
p2057
I2
sS'cover'
p2058
I2
sS'unbred'
p2059
I2
sS'reeleth'
p2060
I2
sS'barren'
p2061
I2
sS'convertest'
p2062
I2
sS'charged'
p2063
I1
sS'lying'
p2064
I2
sS'stones'
p2065
I1
sS'self-substantial'
p2066
I4
sS'despise'
p2067
I2
sS'gold'
p2068
I1
sS'gates'
p2069
I1
sS"y'have"
p2070
I1
sS'wailing'
p2071
I2
sS'fond'
p2072
I1
sS'page'
p2073
I1
sS'rhymers'
p2074
I2
sS'wasted'
p2075
I2
sS'registers'
p2076
I3
sS'heavens'
p2077
I2
sS'fine'
p2078
I1
sS'find'
p2079
I1
sS'viewest'
p2080
I2
sS'sportive'
p2081
I2
sS'gilded'
p2082
I2
sS'aggravate'
p2083
I3
sS'shouldst'
p2084
I1
sS'deserts'
p2085
I2
sS'unperfect'
p2086
I3
sS'ruin'
p2087
I2
sS'hope'
p2088
I1
sS'rotten'
p2089
I2
sS'vision'
p2090
I2
sS'tempests'
p2091
I2
sS'beauteous'
p2092
I3
sS'fiend'
p2093
I1
sS"painter's"
p2094
I2
sS'oerworn'
p2095
I2
sS'distempered'
p2096
I3
sS'gains'
p2097
I1
sS'beams'
p2098
I1
sS'vile'
p2099
I1
sS'express'
p2100
I2
sS'impregnable'
p2101
I4
sS'trees'
p2102
I1
sS'playst'
p2103
I1
sS'remedy'
p2104
I3
sS'hid'
p2105
I1
sS'rest'
p2106
I1
sS'compass'
p2107
I2
sS'swart-complexioned'
p2108
I4
sS'sepulchres'
p2109
I3
sS"send'st"
p2110
I1
sS'him'
p2111
I1
sS'distraction'
p2112
I3
sS'grievances'
p2113
I3
sS'pleasures'
p2114
I2
sS'cry'
p2115
I1
sS'impanelled'
p2116
I3
sS'remove'
p2117
I2
sS'common'
p2118
I2
sS'kill'
p2119
I1
sS'poisoned'
p2120
I2
sS'wrongfully'
p2121
I3
sS'bars'
p2122
I1
sS'set'
p2123
I1
sS'art'
p2124
I1
sS'declines'
p2125
I2
sS'jade'
p2126
I1
sS"o'ersways"
p2127
I2
sS'see'
p2128
I1
sS'bare'
p2129
I1
sS'are'
p2130
I1
sS'sea'
p2131
I1
sS'tender'
p2132
I2
sS'bark'
p2133
I1
sS'outward'
p2134
I2
sS'breast'
p2135
I1
sS'spirits'
p2136
I2
sS'fleetst'
p2137
I1
sS'forlorn'
p2138
I2
sS'please'
p2139
I1
sS'drooping'
p2140
I2
sS'unions'
p2141
I2
sS'won'
p2142
I1
sS'gentlest'
p2143
I2
sS'affairs'
p2144
I2
sS'woe'
p2145
I1
sS'guilt'
p2146
I1
sS'burned'
p2147
I1
sS'monsters'
p2148
I2
sS'thrive'
p2149
I1
sS'endure'
p2150
I2
sS'knowing'
p2151
I2
sS'creating'
p2152
I3
sS'sold'
p2153
I1
sS'sole'
p2154
I1
sS'vanishing'
p2155
I3
sS'death'
p2156
I1
sS'alters'
p2157
I2
sS'both'
p2158
I1
sS'last'
p2159
I1
sS'grounded'
p2160
I2
sS'nimble'
p2161
I2
sS'thou'
p2162
I1
sS'anon'
p2163
I2
sS'forgotten'
p2164
I3
sS'let'
p2165
I1
sS'possesseth'
p2166
I3
sS'afar'
p2167
I2
sS'finds'
p2168
I1
sS'league'
p2169
I1
sS'usest'
p2170
I2
sS'flies'
p2171
I1
sS'onward'
p2172
I2
sS'majesty'
p2173
I3
sS'point'
p2174
I1
sS'simple'
p2175
I2
sS'sweet'
p2176
I1
sS'loan'
p2177
I1
sS'manners'
p2178
I2
sS'except'
p2179
I2
sS'key'
p2180
I1
sS'simply'
p2181
I2
sS'worthless'
p2182
I2
sS'devil'
p2183
I2
sS'unworthiness'
p2184
I4
sS"'scaped"
p2185
I1
sS'stamp'
p2186
I1
sS'devouring'
p2187
I3
sS'acceptance'
p2188
I3
sS'satire'
p2189
I2
sS'due'
p2190
I1
sS'whos'
p2191
I1
sS'whom'
p2192
I1
sS'secret'
p2193
I2
sS"wood's"
p2194
I1
sS'beautys'
p2195
I2
sS'wait'
p2196
I1
sS'delights'
p2197
I2
sS'rosy'
p2198
I2
sS'firm'
p2199
I1
sS'lived'
p2200
I1
sS'partly'
p2201
I2
sS'gay'
p2202
I1
sS"'twixt"
p2203
I1
sS'fire'
p2204
I1
sS"what's"
p2205
I1
sS'overthrow'
p2206
I3
sS'great'
p2207
I1
sS'else'
p2208
I1
sS'awake'
p2209
I2
sS'mournful'
p2210
I2
sS'plants'
p2211
I1
sS'uncertain'
p2212
I3
sS'look'
p2213
I1
sS'straight'
p2214
I1
sS'admire'
p2215
I2
sS'pace'
p2216
I1
sS'while'
p2217
I1
sS'rigour'
p2218
I2
sS"intermixed'"
p2219
I3
sS'kissing'
p2220
I2
sS'eclipses'
p2221
I3
sS'theres'
p2222
I1
sS'youthful'
p2223
I2
sS'costly'
p2224
I2
sS'wild'
p2225
I1
sS'wherever'
p2226
I3
sS"is't"
p2227
I1
sS'confound'
p2228
I2
sS'vow'
p2229
I1
sS'lodged'
p2230
I1
sS'owes'
p2231
I1
sS'seen'
p2232
I1
sS'rid'
p2233
I1
sS'seest'
p2234
I1
sS'fairer'
p2235
I2
sS'chase'
p2236
I1
sS'twofold'
p2237
I2
sS'trial'
p2238
I2
sS'lengths'
p2239
I1
sS'bristly'
p2240
I2
sS'belong'
p2241
I2
sS'engrossed'
p2242
I2
sS'wherein'
p2243
I2
sS'discourse'
p2244
I2
sS'esteemed'
p2245
I2
sS'word'
p2246
I1
sS'ruth'
p2247
I1
sS'miscalled'
p2248
I2
sS'composition'
p2249
I4
sS'oer-snowed'
p2250
I2
sS'rarities'
p2251
I3
sS'covetous'
p2252
I3
sS'used'
p2253
I1
sS'forced'
p2254
I1
sS'mow'
p2255
I1
sS'husbands'
p2256
I2
sS'moment'
p2257
I2
sS'moving'
p2258
I2
sS'user'
p2259
I2
sS'wretchcd'
p2260
I2
sS'broils'
p2261
I1
sS'task'
p2262
I1
sS'older'
p2263
I2
sS'accumulate'
p2264
I4
sS'cheek'
p2265
I1
sS'spent'
p2266
I1
sS"frown'st"
p2267
I1
sS'grind'
p2268
I1
sS'morrow'
p2269
I2
sS'cheer'
p2270
I1
sS'edge'
p2271
I1
sS'starved'
p2272
I1
sS'clears'
p2273
I1
sS'stelled'
p2274
I1
sS'dark'
p2275
I1
sS'steeled'
p2276
I1
sS'things'
p2277
I1
sS'plagues'
p2278
I1
sS'bearer'
p2279
I2
sS'judgments'
p2280
I2
sS'salve'
p2281
I1
sS'shape'
p2282
I1
sS'invent'
p2283
I2
sS'madding'
p2284
I2
sS'unto'
p2285
I2
sS'gems'
p2286
I1
sS'tables'
p2287
I2
sS'cut'
p2288
I1
sS'cup'
p2289
I1
sS'hated'
p2290
I2
sS'decayed'
p2291
I2
sS'sire'
p2292
I1
sS'knowst'
p2293
I1
sS'eager'
p2294
I2
sS'lifts'
p2295
I1
sS'crying'
p2296
I2
sS'hates'
p2297
I1
sS"either's"
p2298
I2
sS"tongue's"
p2299
I1
sS'march'
p2300
I1
sS'awakes'
p2301
I2
sS'big'
p2302
I1
sS'showing'
p2303
I2
sS'advocate'
p2304
I3
sS'judgement'
p2305
I2
sS'redeem'
p2306
I2
sS'fulness'
p2307
I2
sS'private'
p2308
I2
sS'dearly'
p2309
I2
sS'sharpened'
p2310
I2
sS'like'
p2311
I1
sS'outright'
p2312
I2
sS'lost'
p2313
I1
sS'follows'
p2314
I2
sS'strife'
p2315
I1
sS'shapes'
p2316
I1
sS'divining'
p2317
I3
sS'tribes'
p2318
I1
sS'witness'
p2319
I2
sS'foolish'
p2320
I2
sS'twixt'
p2321
I1
sS'canst'
p2322
I1
sS'methods'
p2323
I2
sS'wombs'
p2324
I1
sS'spring'
p2325
I1
sS'creation'
p2326
I3
sS'some'
p2327
I1
sS"'had"
p2328
I1
sS'sighs'
p2329
I1
sS'lips'
p2330
I1
sS'added'
p2331
I1
sS'ornaments'
p2332
I3
sS'curious'
p2333
I3
sS'pale'
p2334
I1
sS'sauces'
p2335
I2
sS'savage'
p2336
I2
sS'acquaintance'
p2337
I3
sS'fairing'
p2338
I2
sS'shall'
p2339
I1
sS'oblivion'
p2340
I4
sS'balmy'
p2341
I2
sS'pen'
p2342
I1
sS'barrenly'
p2343
I3
sS'bearst'
p2344
I1
sS'lark'
p2345
I1
sS't'
p2346
I1
sS'be'
p2347
I1
sS'patient'
p2348
I2
sS'remembered'
p2349
I3
sS'oer'
p2350
I1
sS'clay'
p2351
I1
sS"shadow's"
p2352
I2
sS"'this"
p2353
I1
sS'aloft'
p2354
I2
sS'rent'
p2355
I1
sS'cheered'
p2356
I1
sS'concealed'
p2357
I2
sS'nerves'
p2358
I1
sS"batt'ring"
p2359
I2
sS'shine'
p2360
I1
sS'faith'
p2361
I1
sS'works'
p2362
I1
sS'deserved'
p2363
I1
sS'wrinkles'
p2364
I2
sS'deserves'
p2365
I2
sS'ambush'
p2366
I2
sS'together'
p2367
I3
sS'hatred'
p2368
I2
sS'womens'
p2369
I2
sS'tenants'
p2370
I2
sS'silence'
p2371
I2
sS'misplaced'
p2372
I2
sS'seeing'
p2373
I2
sS'into'
p2374
I2
sS'blunting'
p2375
I2
sS'exceed'
p2376
I2
sS'debateth'
p2377
I3
sS'services'
p2378
I3
sS'inconstant'
p2379
I3
sS'remembrance'
p2380
I3
sS'lesson'
p2381
I2
sS"sharp'st"
p2382
I1
sS'sad'
p2383
I1
sS'featureless'
p2384
I3
sS'few'
p2385
I1
sS'spending'
p2386
I2
sS'question'
p2387
I2
sS'chide'
p2388
I1
sS'whereto'
p2389
I2
sS'suit'
p2390
I1
sS'pictured'
p2391
I2
sS'translate'
p2392
I2
sS'himself'
p2393
I2
sS'arise'
p2394
I2
sS'jacks'
p2395
I1
sS'governs'
p2396
I2
sS'graciously'
p2397
I3
sS'healthful'
p2398
I2
sS'frost'
p2399
I1
sS'vowing'
p2400
I2
sS'alive'
p2401
I2
sS'newer'
p2402
I2
sS'filed'
p2403
I1
sS'hopes'
p2404
I1
sS'line'
p2405
I1
sS'dull'
p2406
I1
sS'usury'
p2407
I3
sS'directed'
p2408
I1
sS'bevel'
p2409
I2
sS'immured'
p2410
I2
sS"lover's"
p2411
I2
sS"monarch's"
p2412
I2
sS'us'
p2413
I1
sS'lords'
p2414
I1
sS'politic'
p2415
I3
sS'slander'
p2416
I2
sS'proves'
p2417
I1
sS'called'
p2418
I1
sS'vassalage'
p2419
I3
sS'possession'
p2420
I3
sS'constant'
p2421
I2
sS'goodly'
p2422
I2
sS'allayed'
p2423
I2
sS'influence'
p2424
I3
sS'scarlet'
p2425
I2
sS'single'
p2426
I2
sS'warning'
p2427
I2
sS'babe'
p2428
I1
sS'surmise'
p2429
I2
sS'rainy'
p2430
I2
sS'sullen'
p2431
I2
sS'sunken'
p2432
I2
sS'painters'
p2433
I2
sS'impediments'
p2434
I4
sS'peace'
p2435
I1
sS'fears'
p2436
I1
sS'dimmed'
p2437
I1
sS'charactered'
p2438
I3
sS'gavst'
p2439
I1
sS'confine'
p2440
I2
sS'mock'
p2441
I1
sS'perusal'
p2442
I3
sS'draw'
p2443
I1
sS'aright'
p2444
I2
sS'titles'
p2445
I2
sS'clean'
p2446
I1
sS'lend'
p2447
I1
sS'breasts'
p2448
I1
sS'nay'
p2449
I1
sS'rise'
p2450
I1
sS'weigh'
p2451
I1
sS'makeless'
p2452
I2
sS'wrinkle'
p2453
I2
sS'sides'
p2454
I1
sS'bases'
p2455
I2
sS'suffers'
p2456
I2
sS'happier'
p2457
I2
sS'happies'
p2458
I2
sS"spend'st"
p2459
I1
sS'vice'
p2460
I3
sS'age'
p2461
I1
sS'wards'
p2462
I1
sS'admiring'
p2463
I3
sS'heats'
p2464
I1
sS'came'
p2465
I1
sS'far'
p2466
I1
sS'fresh'
p2467
I1
sS'marvel'
p2468
I2
sS'having'
p2469
I2
sS'once'
p2470
I1
sS'wilfulness'
p2471
I3
sS'love-god'
p2472
I2
sS'highmost'
p2473
I2
sS'tombs'
p2474
I1
sS"deformed'st"
p2475
I2
sS'alien'
p2476
I2
sS'windy'
p2477
I2
sS'gladly'
p2478
I2
sS'amiss'
p2479
I2
sS"present'st"
p2480
I2
sS'seemed'
p2481
I1
sS'graves'
p2482
I1
sS'tincture'
p2483
I2
sS'uphold'
p2484
I2
sS'reckoned'
p2485
I2
sS'young'
p2486
I1
sS'send'
p2487
I1
sS'breach'
p2488
I1
sS'pleasing'
p2489
I2
sS'virtuous'
p2490
I3
sS'over-partial'
p2491
I4
sS'enjoyer'
p2492
I3
sS'wished'
p2493
I1
sS'torture'
p2494
I2
sS"'now"
p2495
I1
sS'confounding'
p2496
I1
sS'rhyme'
p2497
I1
sS'blot'
p2498
I1
sS'rebuked'
p2499
I2
sS'scanted'
p2500
I2
sS'accuse'
p2501
I2
sS'telling'
p2502
I2
sS'false-speaking'
p2503
I3
sS'iniquity'
p2504
I4
sS'bonds'
p2505
I1
sS'try'
p2506
I1
sS"eve's"
p2507
I1
sS'race'
p2508
I1
sS'verdict'
p2509
I2
sS'betwixt'
p2510
I2
sS'noted'
p2511
I2
sS"alt'ring"
p2512
I2
sS'teachest'
p2513
I2
sS'crow'
p2514
I1
sS"work's"
p2515
I1
sS'poets'
p2516
I2
sS'waking'
p2517
I2
sS'jump'
p2518
I1
sS'issueless'
p2519
I3
sS'go'
p2520
I1
sS'plead'
p2521
I1
sS'decrees'
p2522
I2
sS'pity-wanting'
p2523
I4
sS'victor'
p2524
I2
sS'giving'
p2525
I2
sS'saw'
p2526
I1
sS'slight'
p2527
I1
sS'expressed'
p2528
I1
sS"man's"
p2529
I1
sS'paying'
p2530
I1
sS'waiting'
p2531
I2
sS"seasons'"
p2532
I2
sS'famoused'
p2533
I2
sS'bird'
p2534
I1
sS'body'
p2535
I2
sS'melancholy'
p2536
I4
sS'chose'
p2537
I1
sS'gathered'
p2538
I2
sS'sins'
p2539
I1
sS'growing'
p2540
I1
sS'scythe'
p2541
I1
sS'objects'
p2542
I2
sS'poverty'
p2543
I3
sS'separation'
p2544
I4
sS'others'
p2545
I2
sS'dissuade'
p2546
I2
sS'sing'
p2547
I1
sS'adulterate'
p2548
I4
sS'extreme'
p2549
I2
sS'convert'
p2550
I2
sS'burthens'
p2551
I2
sS'receive'
p2552
I2
sS'until'
p2553
I2
sS'metre'
p2554
I2
sS'leaving'
p2555
I2
sS'survey'
p2556
I2
sS'defeat'
p2557
I2
sS'vaunt'
p2558
I1
sS'makes'
p2559
I1
sS'writes'
p2560
I1
sS'thats'
p2561
I1
sS'composed'
p2562
I2
sS'control'
p2563
I2
sS'chaste'
p2564
I1
sS'apple'
p2565
I2
sS'admired'
p2566
I2
sS'forbid'
p2567
I2
sS'win'
p2568
I1
sS"whoe'er"
p2569
I2
sS'messengers'
p2570
I3
sS'uprear'
p2571
I2
sS'posterity'
p2572
I4
sS'wit'
p2573
I1
sS'decrease'
p2574
I2
sS'scandal'
p2575
I2
sS'cloud'
p2576
I1
sS'desiring'
p2577
I3
sS'fed'
p2578
I1
sS'fee'
p2579
I1
sS'from'
p2580
I1
sS'remains'
p2581
I2
sS'hammered'
p2582
I2
sS'next'
p2583
I1
sS'saith'
p2584
I1
sS'doubt'
p2585
I1
sS'themselves'
p2586
I2
sS'hiding'
p2587
I2
sS"sun's"
p2588
I1
sS'defendant'
p2589
I3
sS'cheeks'
p2590
I1
sS'sort'
p2591
I1
sS'pencil'
p2592
I2
sS'assailed'
p2593
I2
sS'pretty'
p2594
I2
sS'misuse'
p2595
I2
sS'becomes'
p2596
I2
sS'freedom'
p2597
I2
sS'heir'
p2598
I1
sS"need'st"
p2599
I1
sS'infection'
p2600
I3
sS'meant'
p2601
I1
sS'insufficiency'
p2602
I5
sS'sue'
p2603
I1
sS'tattered'
p2604
I2
sS'special-blest'
p2605
I3
sS'harvest'
p2606
I2
sS'annoy'
p2607
I2
sS"none'"
p2608
I1
sS'account'
p2609
I2
sS'lovst'
p2610
I1
sS'this'
p2611
I1
sS'ride'
p2612
I1
sS'linger'
p2613
I2
sS'compiled'
p2614
I2
sS'fortunes'
p2615
I2
sS'halt'
p2616
I1
sS'crossed'
p2617
I1
sS'praise'
p2618
I1
sS'executor'
p2619
I4
sS'meet'
p2620
I1
sS'drops'
p2621
I1
sS'befits'
p2622
I2
sS'proof'
p2623
I1
sS'thralled'
p2624
I1
sS'unswept'
p2625
I2
sS'bent'
p2626
I1
sS'ushers'
p2627
I2
sS'process'
p2628
I2
sS'stoln'
p2629
I1
sS'high'
p2630
I1
sS'salving'
p2631
I2
sS'his'
p2632
I1
sS'something'
p2633
I2
sS'sought'
p2634
I1
sS'purposed'
p2635
I2
sS'paws'
p2636
I1
sS'darkening'
p2637
I3
sS'counterfeit'
p2638
I3
sS'lamb'
p2639
I1
sS'summers'
p2640
I2
sS'conceit'
p2641
I2
sS'compounded'
p2642
I1
sS'falls'
p2643
I1
sS'sit'
p2644
I1
sS"sickle's"
p2645
I2
sS'purpose'
p2646
I2
sS'holds'
p2647
I1
sS'thrall'
p2648
I1
sS'moods'
p2649
I1
sS'blessings'
p2650
I2
sS'slandering'
p2651
I3
sS'mightst'
p2652
I1
sS'forsaken'
p2653
I3
sS'sin'
p2654
I1
sS'watery'
p2655
I3
sS'attend'
p2656
I2
sS'watch'
p2657
I1
sS'tied'
p2658
I1
sS'abuse'
p2659
I2
sS'fits'
p2660
I1
sS"worth's"
p2661
I1
sS'tongue'
p2662
I1
sS'physic'
p2663
I2
sS'bankrupt'
p2664
I2
sS"bear'st"
p2665
I1
sS'untrimmed'
p2666
I2
sS'light'
p2667
I1
sS'lame'
p2668
I1
sS'lines'
p2669
I1
sS'chief'
p2670
I1
sS'writ'
p2671
I1
sS'allow'
p2672
I2
sS'pyramids'
p2673
I3
sS'favourites'
p2674
I3
sS'counted'
p2675
I2
sS'whateer'
p2676
I2
sS'neglect'
p2677
I2
sS'beauties'
p2678
I2
sS'stamped'
p2679
I1
sS'transfix'
p2680
I2
sS'move'
p2681
I1
sS'widowed'
p2682
I2
sS"o'erlook"
p2683
I2
sS'whilst'
p2684
I1
sS'beguile'
p2685
I2
sS'dearest'
p2686
I2
sS'enclose'
p2687
I2
sS'looks'
p2688
I1
sS'tyrant'
p2689
I2
sS'thyself'
p2690
I2
sS'badges'
p2691
I2
sS'adders'
p2692
I2
sS'down-rased'
p2693
I2
sS'refusest'
p2694
I2
sS'frailties'
p2695
I2
sS'brood'
p2696
I1
sS'whereon'
p2697
I2
sS'unstained'
p2698
I2
sS'thence'
p2699
I1
sS'lo'
p2700
I1
sS'wretchs'
p2701
I1
sS'whereof'
p2702
I2
sS'banquet'
p2703
I2
sS'themes'
p2704
I1
sS'willing'
p2705
I2
sS'choose'
p2706
I1
sS'attaint'
p2707
I2
sS'tickled'
p2708
I2
sS'pure'
p2709
I1
sS'flattery'
p2710
I3
sS'sweets'
p2711
I1
sS'stout'
p2712
I1
sS'hands'
p2713
I1
sS'front'
p2714
I1
sS"owner's"
p2715
I2
sS'kindness'
p2716
I2
sS'affections'
p2717
I3
sS'day'
p2718
I1
sS'damasked'
p2719
I2
sS'strive'
p2720
I1
sS'worlds'
p2721
I1
sS'profound'
p2722
I2
sS'eased'
p2723
I1
sS'feast'
p2724
I1
sS'mouthed'
p2725
I1
sS'trimmed'
p2726
I1
sS'slide'
p2727
I1
sS'truth'
p2728
I1
sS'gazing'
p2729
I2
sS'legions'
p2730
I2
sS'beshrew'
p2731
I2
sS'lie'
p2732
I1
sS'pitying'
p2733
I3
sS'debarred'
p2734
I2
sS'doing'
p2735
I2
sS"princes'"
p2736
I2
sS'ills'
p2737
I1
sS'alteration'
p2738
I4
sS'society'
p2739
I4
sS'decays'
p2740
I2
sS'exceeded'
p2741
I3
sS'our'
p2742
I1
sS'bay'
p2743
I1
sS'tenth'
p2744
I1
sS'prizing'
p2745
I2
sS'might'
p2746
I1
sS'respects'
p2747
I2
sS"children's"
p2748
I2
sS"sway'st"
p2749
I1
sS'confess'
p2750
I2
sS'sufficed'
p2751
I2
sS'bad'
p2752
I1
sS'wondrous'
p2753
I2
sS'impart'
p2754
I2
sS'cause'
p2755
I1
sS'red'
p2756
I1
sS'afford'
p2757
I2
sS'perish'
p2758
I2
sS'frank'
p2759
I1
sS'darkly'
p2760
I2
sS'embassy'
p2761
I3
sS'gaol'
p2762
I1
sS'canker'
p2763
I2
sS'shun'
p2764
I1
sS'yore'
p2765
I1
sS'cured'
p2766
I1
sS'prepare'
p2767
I2
sS'rearward'
p2768
I2
sS'could'
p2769
I1
sS'keep'
p2770
I1
sS'counterpart'
p2771
I3
sS'keen'
p2772
I1
sS'length'
p2773
I1
sS'cures'
p2774
I1
sS'mortal'
p2775
I2
sS'felt'
p2776
I1
sS'ears'
p2777
I1
sS'miser'
p2778
I2
sS'rudely'
p2779
I2
sS'new-appearing'
p2780
I4
sS'fragrant'
p2781
I2
sS'pitied'
p2782
I2
sS'savour'
p2783
I2
sS'powerful'
p2784
I3
sS'loveliness'
p2785
I3
sS'feasts'
p2786
I1
sS"learned's"
p2787
I2
sS'such'
p2788
I1
sS'watchman'
p2789
I2
sS'quality'
p2790
I3
sS"run'st"
p2791
I1
sS"love'"
p2792
I1
sS'long'
p2793
I1
sS'sadly'
p2794
I2
sS'bears'
p2795
I1
sS'murdrous'
p2796
I2
sS'vulgar'
p2797
I2
sS'seat'
p2798
I1
sS'comes'
p2799
I2
sS'intelligence'
p2800
I4
sS'prouder'
p2801
I2
sS'travelled'
p2802
I2
sS'badness'
p2803
I2
sS'fairest'
p2804
I2
sS'painful'
p2805
I2
sS'prone'
p2806
I1
sS'watching'
p2807
I2
sS'sealed'
p2808
I1
sS"were't"
p2809
I1
sS'perforce'
p2810
I2
sS'receivst'
p2811
I2
sS'prefiguring'
p2812
I4
sS'herself'
p2813
I2
sS'commence'
p2814
I2
sS'remember'
p2815
I3
sS'steel'
p2816
I1
sS'loved'
p2817
I1
sS'unlooked'
p2818
I2
sS'aught'
p2819
I1
sS'beseem'
p2820
I2
sS'riches'
p2821
I2
sS'richer'
p2822
I2
sS'bed'
p2823
I1
sS'jollity'
p2824
I3
sS'transgression'
p2825
I3
sS"body's"
p2826
I2
sS'loves'
p2827
I1
sS'bind'
p2828
I1
sS'dumb'
p2829
I1
sS"lily's"
p2830
I2
sS'steep'
p2831
I1
sS'descriptions'
p2832
I3
sS'drunk'
p2833
I1
sS'accusing'
p2834
I1
sS'enforced'
p2835
I2
sS'beggared'
p2836
I2
sS'false'
p2837
I1
sS"forget'st"
p2838
I2
sS'beggar'
p2839
I2
sS'labouring'
p2840
I3
sS'gently'
p2841
I2
sS'neer'
p2842
I1
sS'refigured'
p2843
I3
sS'presenteth'
p2844
I3
sS'prophetic'
p2845
I3
sS'torment'
p2846
I2
sS'have'
p2847
I1
sS'putst'
p2848
I1
sS'need'
p2849
I1
sS'turn'
p2850
I1
sS'sings'
p2851
I1
sS'bastard'
p2852
I2
sS'aprils'
p2853
I2
sS'bough'
p2854
I1
sS'reeks'
p2855
I1
sS'able'
p2856
I2
sS'gravity'
p2857
I3
sS'adjunct'
p2858
I2
sS'oerpressed'
p2859
I2
sS'divert'
p2860
I2
sS'adieu'
p2861
I2
sS'unless'
p2862
I2
sS'centre'
p2863
I2
sS'who'
p2864
I1
sS'privilage'
p2865
I3
sS"time's"
p2866
I1
sS'harmful'
p2867
I2
sS'offend'
p2868
I2
sS'fountains'
p2869
I2
sS'prisoner'
p2870
I3
sS'expired'
p2871
I1
sS'why'
p2872
I1
sS"husband's"
p2873
I2
sS'statute'
p2874
I2
sS'deny'
p2875
I2
sS'wherewith'
p2876
I2
sS'bred'
p2877
I1
sS'stronger'
p2878
I2
sS'disease'
p2879
I2
sS'reproving'
p2880
I3
sS'looked'
p2881
I1
sS'pictures'
p2882
I2
sS'wounded'
p2883
I2
sS'sail'
p2884
I1
sS'painting'
p2885
I2
sS'outlive'
p2886
I2
sS'deface'
p2887
I2
sS'impression'
p2888
I3
sS'slandered'
p2889
I2
sS'wilful'
p2890
I2
sS'couldst'
p2891
I1
sS'burden'
p2892
I2
sS'poesy'
p2893
I3
sS'bring'
p2894
I1
sS"many's"
p2895
I2
sS'altring'
p2896
I2
sS'fear'
p2897
I1
sS'obsequious'
p2898
I4
sS'pleased'
p2899
I1
sS'spurring'
p2900
I2
sS'envy'
p2901
I2
sS'knowledge'
p2902
I2
sS'philomel'
p2903
I3
sS'mute'
p2904
I1
sS'woo'
p2905
I1
sS'world-without-end'
p2906
I4
sS'should'
p2907
I1
sS"there's"
p2908
I1
sS'preposterously'
p2909
I4
sS'fuel'
p2910
I2
sS'marriage'
p2911
I2
sS'inhabit'
p2912
I3
sS'mortality'
p2913
I4
sS'exchanged'
p2914
I2
sS'accessary'
p2915
I4
sS'doubting'
p2916
I2
sS'undivided'
p2917
I4
sS'familiar'
p2918
I3
sS'bear'
p2919
I1
sS'sightless'
p2920
I2
sS'abundance'
p2921
I3
sS'perfection'
p2922
I3
sS'words'
p2923
I1
sS'durst'
p2924
I1
sS'leases'
p2925
I2
sS'chips'
p2926
I1
sS'rite'
p2927
I1
sS'endless'
p2928
I2
sS'heretic'
p2929
I3
sS"stick'st"
p2930
I1
sS'glory'
p2931
I2
sS'offences'
p2932
I3
sS'gust'
p2933
I1
sS'married'
p2934
I2
sS'summon'
p2935
I2
sS'manys'
p2936
I2
sS'she'
p2937
I1
sS'contain'
p2938
I2
sS'fixed'
p2939
I1
sS'deceived'
p2940
I2
sS'strengthened'
p2941
I2
sS'sluttish'
p2942
I2
sS'untrue'
p2943
I2
sS'outbraves'
p2944
I2
sS'farthest'
p2945
I2
sS'prayers'
p2946
I2
sS'frame'
p2947
I1
sS'shake'
p2948
I1
sS'legacy'
p2949
I3
sS'merits'
p2950
I2
sS'changes'
p2951
I2
sS'desperate'
p2952
I3
sS'violet'
p2953
I3
sS'sleeping'
p2954
I2
sS'overturn'
p2955
I3
sS'tripping'
p2956
I2
sS'error'
p2957
I2
sS'closet'
p2958
I2
sS'placed'
p2959
I1
sS'pattern'
p2960
I2
sS'vows'
p2961
I1
sS'unseeing'
p2962
I3
sS'worship'
p2963
I2
sS'written'
p2964
I2
sS'boughs'
p2965
I1
sS'progress'
p2966
I2
sS'neither'
p2967
I2
sS'besmeared'
p2968
I2
sS'wiry'
p2969
I2
sS'monarchs'
p2970
I2
sS'oer-read'
p2971
I2
sS'herein'
p2972
I2
sS'amen'
p2973
I2
sS'dressings'
p2974
I2
sS'joy'
p2975
I1
sS'sorrow'
p2976
I2
sS'beweep'
p2977
I2
sS'never-resting'
p2978
I4
sS'hooks'
p2979
I1
sS'spoil'
p2980
I1
sS'precious'
p2981
I2
sS'weary'
p2982
I2
sS'swift'
p2983
I1
sS'hits'
p2984
I1
sS'figured'
p2985
I2
sS'instant'
p2986
I2
sS'limits'
p2987
I2
sS'invited'
p2988
I3
sS'decay'
p2989
I2
sS'equal'
p2990
I2
sS'minds'
p2991
I1
sS'ruminate'
p2992
I3
sS'strains'
p2993
I1
sS'admit'
p2994
I2
sS'devour'
p2995
I2
sS'figures'
p2996
I2
sS"store's"
p2997
I1
sS'conquered'
p2998
I2
sS'canopy'
p2999
I3
sS'lofty'
p3000
I2
sS"beds'"
p3001
I1
sS'aye'
p3002
I1
sS'comment'
p3003
I2
sS'fester'
p3004
I2
sS'statues'
p3005
I2
sS'gone'
p3006
I1
sS'walk'
p3007
I1
sS'commend'
p3008
I2
sS"wretch's"
p3009
I2
sS'kings'
p3010
I1
sS'acknowledge'
p3011
I3
sS'death-bed'
p3012
I2
sS'second'
p3013
I2
sS'addition'
p3014
I3
sS'wills'
p3015
I1
sS"friend'"
p3016
I1
sS'fury'
p3017
I2
sS"whate'er"
p3018
I2
sS'certain'
p3019
I2
sS'poet'
p3020
I2
sS'stickst'
p3021
I1
sS'waste'
p3022
I1
sS'spacious'
p3023
I2
sS'tyranny'
p3024
I3
sS'senses'
p3025
I2
sS'proudest'
p3026
I2
sS"war's"
p3027
I1
sS'painted'
p3028
I2
sS'face'
p3029
I1
sS'releasing'
p3030
I3
sS"hear'st"
p3031
I1
sS'lets'
p3032
I1
sS'unmoved'
p3033
I2
sS'general'
p3034
I3
sS'present'
p3035
I2
sS'debtor'
p3036
I2
sS'novel'
p3037
I2
sS'sourly'
p3038
I2
sS'surety-like'
p3039
I3
sS'wilt'
p3040
I1
sS'slept'
p3041
I1
sS'means'
p3042
I1
sS'addeth'
p3043
I2
sS'as'
p3044
I1
sS'three-fold'
p3045
I2
sS'will'
p3046
I1
sS'riper'
p3047
I2
sS"hate's"
p3048
I1
sS'at'
p3049
I1
sS'ripe'
p3050
I1
sS'physicians'
p3051
I3
sS'almost'
p3052
I2
sS'up-locked'
p3053
I2
sS'thus'
p3054
I1
sS'over-goes'
p3055
I3
sS'turns'
p3056
I1
sS'lambs'
p3057
I1
sS'sits'
p3058
I1
sS'new-fangled'
p3059
I3
sS'ransom'
p3060
I2
sS'all-eating'
p3061
I3
sS'servants'
p3062
I2
sS'perhaps'
p3063
I2
sS'cross'
p3064
I1
sS'largess'
p3065
I2
sS'adverse'
p3066
I2
sS'strange'
p3067
I1
sS'duteous'
p3068
I3
sS'kingly'
p3069
I2
sS'party'
p3070
I2
sS'well-contented'
p3071
I4
sS'blooms'
p3072
I1
sS'slave'
p3073
I1
sS'toil'
p3074
I1
sS'flesh'
p3075
I1
sS'shames'
p3076
I1
sS'drink'
p3077
I1
sS'upon'
p3078
I2
sS'effect'
p3079
I2
sS'outcast'
p3080
I2
sS'beast'
p3081
I1
sS'pourst'
p3082
I1
sS'fierce'
p3083
I1
sS'judgment'
p3084
I2
sS'betray'
p3085
I2
sS'shamed'
p3086
I1
sS'audit'
p3087
I2
sS'scarcely'
p3088
I2
sS'off'
p3089
I1
sS'i'
p3090
I1
sS'approve'
p3091
I2
sS'colour'
p3092
I2
sS'well'
p3093
I1
sS'thought'
p3094
I1
sS'amends'
p3095
I2
sS'oft'
p3096
I1
sS'drowns'
p3097
I1
sS'tibey'
p3098
I2
sS'builded'
p3099
I2
sS'twire'
p3100
I1
sS'bending'
p3101
I2
sS'restore'
p3102
I2
sS'stores'
p3103
I1
sS'kiss'
p3104
I1
sS'liker'
p3105
I2
sS'less'
p3106
I1
sS"o'erpressed"
p3107
I2
sS'gulls'
p3108
I1
sS'cries'
p3109
I1
sS'interim'
p3110
I3
sS'skill'
p3111
I1
sS'thither'
p3112
I2
sS'warrantise'
p3113
I3
sS'feathered'
p3114
I2
sS'field'
p3115
I1
sS'bell'
p3116
I1
sS'sky'
p3117
I1
sS'fled'
p3118
I1
sS'arrest'
p3119
I2
sS'add'
p3120
I1
sS'book'
p3121
I1
sS'wet'
p3122
I1
sS"infant's"
p3123
I2
sS'wandring'
p3124
I2
sS'raven'
p3125
I2
sS'wooed'
p3126
I1
sS'fate'
p3127
I1
sS'testy'
p3128
I2
sS'devised'
p3129
I2
sS'famine'
p3130
I2
sS"who's"
p3131
I1
sS'crushed'
p3132
I1
sS'smother'
p3133
I2
sS'five'
p3134
I1
sS'know'
p3135
I1
sS'presume'
p3136
I2
sS'press'
p3137
I1
sS"dial's"
p3138
I1
sS'fools'
p3139
I1
sS'loss'
p3140
I1
sS'necessary'
p3141
I4
sS"garments'"
p3142
I2
sS'inviting'
p3143
I3
sS'perpetual'
p3144
I4
sS'rich-proud'
p3145
I2
sS'admitted'
p3146
I3
sS'dove'
p3147
I1
sS'heed'
p3148
I1
sS'lose'
p3149
I1
sS'become'
p3150
I2
sS'dispraise'
p3151
I2
sS'indigest'
p3152
I3
sS'lends'
p3153
I1
sS'therein'
p3154
I2
sS'decease'
p3155
I2
sS'warmed'
p3156
I1
sS'because'
p3157
I2
sS'thief'
p3158
I1
sS'authority'
p3159
I4
sS'immortal'
p3160
I3
sS'hush'
p3161
I1
sS'growth'
p3162
I1
sS'sickles'
p3163
I2
sS'home'
p3164
I1
sS'transport'
p3165
I2
sS"heaven's"
p3166
I2
sS'lead'
p3167
I1
sS'broad'
p3168
I1
sS'lean'
p3169
I1
sS'whole'
p3170
I1
sS'leap'
p3171
I1
sS'passion'
p3172
I2
sS'masked'
p3173
I1
sS"o'ertake"
p3174
I2
sS'decembers'
p3175
I3
sS'thinly'
p3176
I2
sS'tenure'
p3177
I2
sS"death's"
p3178
I1
sS'expire'
p3179
I2
sS'presentst'
p3180
I2
sS'although'
p3181
I2
sS'worthy'
p3182
I2
sS'instinct'
p3183
I2
sS'imaginary'
p3184
I5
sS'stay'
p3185
I1
sS"travel's"
p3186
I2
sS'worths'
p3187
I1
sS'uneared'
p3188
I2
sS'hied'
p3189
I1
sS"murd'rous"
p3190
I2
sS'rare'
p3191
I1
sS'dun'
p3192
I1
sS'owst'
p3193
I1
sS'universe'
p3194
I3
sS'fearful'
p3195
I2
sS'swear'
p3196
I1
sS'gainer'
p3197
I2
sS'hairs'
p3198
I1
sS'tomb'
p3199
I1
sS'outstripped'
p3200
I2
sS'reckoning'
p3201
I3
sS'own'
p3202
I1
sS'polished'
p3203
I2
sS'childrens'
p3204
I22
sS'owe'
p3205
I1
sS'wakened'
p3206
I2
sS'repair'
p3207
I2
sS'guard'
p3208
I1
sS'promise'
p3209
I2
sS'treads'
p3210
I1
sS'female'
p3211
I2
sS'lawful'
p3212
I2
sS'quickly'
p3213
I2
sS'rudst'
p3214
I1
sS'gazeth'
p3215
I2
sS'suborned'
p3216
I2
sS'victors'
p3217
I2
sS'friends'
p3218
I1
sS'trenches'
p3219
I2
sS'reigned'
p3220
I1
sS'spread'
p3221
I1
sS'much'
p3222
I1
sS"grief's"
p3223
I1
sS'function'
p3224
I2
sS'beard'
p3225
I1
sS'buy'
p3226
I1
sS'hoisted'
p3227
I2
sS'learneds'
p3228
I1
sS'brand'
p3229
I1
sS'invocate'
p3230
I3
sS"wand'ring"
p3231
I2
sS'gait'
p3232
I1
sS'prophecies'
p3233
I3
sS'plague'
p3234
I1
sS'gain'
p3235
I1
sS'delivers'
p3236
I3
sS'ear'
p3237
I1
sS'eat'
p3238
I1
sS'bud'
p3239
I1
sS'he'
p3240
I1
sS'count'
p3241
I1
sS'made'
p3242
I1
sS'wise'
p3243
I1
sS'princes'
p3244
I2
sS'evident'
p3245
I3
sS'whether'
p3246
I2
sS'wish'
p3247
I1
sS'grieve'
p3248
I1
sS'triumphant'
p3249
I3
sS"eyes'"
p3250
I1
sS'record'
p3251
I2
sS'cruel'
p3252
I2
sS'converted'
p3253
I1
sS'limit'
p3254
I2
sS'monument'
p3255
I3
sS'infants'
p3256
I2
sS'minutes'
p3257
I2
sS'oercharged'
p3258
I2
sS'unfolding'
p3259
I3
sS'rightly'
p3260
I2
sS'deaths'
p3261
I1
sS'devise'
p3262
I2
sS'measure'
p3263
I2
sS'bravry'
p3264
I2
sS'dearth'
p3265
I1
sS'denote'
p3266
I2
sS'consumed'
p3267
I1
sS'goodness'
p3268
I2
sS'ink'
p3269
I1
sS'fleeting'
p3270
I2
sS'self-killed'
p3271
I2
sS'proceeds'
p3272
I2
sS'endeared'
p3273
I2
sS'nursed'
p3274
I1
sS'gildst'
p3275
I1
sS'mutual'
p3276
I3
sS'compared'
p3277
I2
sS'didst'
p3278
I1
sS'dressed'
p3279
I1
sS'boot'
p3280
I1
sS'forests'
p3281
I2
sS'slumbers'
p3282
I2
sS'other'
p3283
I2
sS'special'
p3284
I2
sS'sick'
p3285
I1
sS'unlettered'
p3286
I3
sS'behold'
p3287
I2
sS'out'
p3288
I1
sS'beseechers'
p3289
I3
sS'trophies'
p3290
I2
sS'pupil'
p3291
I2
sS'semblance'
p3292
I2
sS'kinds'
p3293
I1
sS'waves'
p3294
I1
sS'oppression'
p3295
I3
sS'variation'
p3296
I4
sS'insults'
p3297
I2
sS'methinks'
p3298
I2
sS'chance'
p3299
I1
sS'earthly'
p3300
I2
sS'astronomy'
p3301
I4
sS'veil'
p3302
I1
sS'bettring'
p3303
I2
sS'tan'
p3304
I1
sS'ghost'
p3305
I1
sS'stirred'
p3306
I1
sS'wondring'
p3307
I2
sS'self-example'
p3308
I4
sS'ranks'
p3309
I1
sS"he's"
p3310
I1
sS'love-kindling'
p3311
I3
sS'jewel'
p3312
I2
sS'abhor'
p3313
I2
sS'thrivers'
p3314
I2
sS'plods'
p3315
I1
sS'vassal'
p3316
I2
sS'determination'
p3317
I5
sS'accidents'
p3318
I3
sS'indirectly'
p3319
I4
s.