(dp0
S'fawn'
p1
I1
sS'pardon'
p2
I2
sS'yellow'
p3
I2
sS'four'
p4
I1
sS'hath'
p5
I1
sS'sleep'
p6
I1
sS"friend's"
p7
I1
sS'hanging'
p8
I2
sS'mansion'
p9
I2
sS'appetite'
p10
I3
sS'captain'
p11
I2
sS'hate'
p12
I1
sS'poorly'
p13
I2
sS'whose'
p14
I1
sS'feeding'
p15
I2
sS'effectually'
p16
I4
sS'granting'
p17
I2
sS'sweetest'
p18
I2
sS'presents'
p19
I2
sS'whatsoever'
p20
I4
sS'under'
p21
I2
sS'lord'
p22
I1
sS'sorry'
p23
I2
sS'pride'
p24
I1
sS'sway'
p25
I1
sS'worth'
p26
I1
sS'frowns'
p27
I1
sS'discased'
p28
I2
sS'dispense'
p29
I2
sS'hadst'
p30
I1
sS'inhearse'
p31
I2
sS"women's"
p32
I2
sS'every'
p33
I3
sS'foul'
p34
I1
sS'nourished'
p35
I2
sS"o'er-read"
p36
I2
sS'uttering'
p37
I3
sS'prize'
p38
I1
sS'sunk'
p39
I1
sS'graced'
p40
I1
sS'succession'
p41
I3
sS'graces'
p42
I1
sS'triumph'
p43
I2
sS'enjoy'
p44
I2
sS'charter'
p45
I2
sS'force'
p46
I1
sS'tired'
p47
I1
sS'razed'
p48
I1
sS'out-going'
p49
I3
sS'tires'
p50
I1
sS'crave'
p51
I1
sS'persuade'
p52
I2
sS'down-rased'
p53
I2
sS'esteem'
p54
I2
sS'quill'
p55
I1
sS'even'
p56
I2
sS'beated'
p57
I2
sS'evermore'
p58
I3
sS'hide'
p59
I1
sS"ne'er"
p60
I1
sS'solemn'
p61
I2
sS'thunder'
p62
I2
sS'fingers'
p63
I2
sS'liberty'
p64
I3
sS"gild'st"
p65
I1
sS'worser'
p66
I2
sS'wakened'
p67
I2
sS'above'
p68
I2
sS'matcheth'
p69
I2
sS'new'
p70
I1
sS'increasing'
p71
I1
sS'ever'
p72
I2
sS'told'
p73
I1
sS'deemed'
p74
I1
sS'sinks'
p75
I1
sS'never'
p76
I2
sS'here'
p77
I1
sS'herd'
p78
I1
sS'beck'
p79
I1
sS"sweet'st"
p80
I1
sS'pursuit'
p81
I2
sS'active'
p82
I2
sS'quite'
p83
I1
sS'a-doting'
p84
I3
sS'dry'
p85
I1
sS'resty'
p86
I2
sS'substance'
p87
I2
sS'attending'
p88
I3
sS'leaves'
p89
I1
sS'climbed'
p90
I1
sS'credit'
p91
I2
sS'smoke'
p92
I1
sS'permit'
p93
I2
sS'bettered'
p94
I2
sS'mistake'
p95
I2
sS'settled'
p96
I2
sS'golden'
p97
I2
sS'swearing'
p98
I2
sS'divide'
p99
I2
sS'blessed-fair'
p100
I3
sS'sorrows'
p101
I2
sS'patience'
p102
I2
sS'stern'
p103
I1
sS'glance'
p104
I1
sS"light's"
p105
I1
sS'plot'
p106
I1
sS'would'
p107
I1
sS'crowning'
p108
I2
sS"world's"
p109
I1
sS'junes'
p110
I1
sS'music'
p111
I2
sS'therefore'
p112
I2
sS'survive'
p113
I2
sS'gilding'
p114
I2
sS'tell'
p115
I1
sS'breathe'
p116
I1
sS'leese'
p117
I1
sS'unbless'
p118
I2
sS'holy'
p119
I2
sS'wary'
p120
I2
sS'brings'
p121
I1
sS'muse'
p122
I1
sS'hurt'
p123
I1
sS'grief'
p124
I1
sS'glass'
p125
I1
sS'warm'
p126
I1
sS'former'
p127
I4
sS'excellent'
p128
I3
sS'continual'
p129
I3
sS'ward'
p130
I1
sS'hold'
p131
I1
sS'striving'
p132
I2
sS'must'
p133
I1
sS'shoot'
p134
I1
sS'join'
p135
I1
sS'room'
p136
I1
sS'err'
p137
I1
sS'rights'
p138
I1
sS'work'
p139
I1
sS'eclipse'
p140
I2
sS'roof'
p141
I1
sS'meadows'
p142
I2
sS'ere'
p143
I1
sS'sharp'
p144
I1
sS'leaped'
p145
I1
sS'dost'
p146
I1
sS'revenues'
p147
I3
sS'root'
p148
I1
sS'example'
p149
I3
sS'shook'
p150
I1
sS'fresher'
p151
I1
sS'wane'
p152
I1
sS'unjust'
p153
I2
sS'impair'
p154
I2
sS"wand'rest"
p155
I2
sS'want'
p156
I1
sS'appearance'
p157
I3
sS'story'
p158
I2
sS'returned'
p159
I2
sS'ceremony'
p160
I4
sS"consum'st"
p161
I2
sS'gusts'
p162
I1
sS'provide'
p163
I2
sS'dignifies'
p164
I3
sS'travel'
p165
I2
sS'feature'
p166
I2
sS'wights'
p167
I1
sS'how'
p168
I1
sS'hot'
p169
I1
sS'writers'
p170
I2
sS'answer'
p171
I2
sS'gate'
p172
I1
sS'dignified'
p173
I3
sS"o'er-snowed"
p174
I2
sS'blanks'
p175
I1
sS'beauty'
p176
I2
sS'after'
p177
I2
sS'hence'
p178
I1
sS'wrong'
p179
I1
sS'lay'
p180
I1
sS'lap'
p181
I1
sS'wronk'
p182
I1
sS"grow'st"
p183
I1
sS"rud'st"
p184
I1
sS'revolt'
p185
I2
sS'greet'
p186
I1
sS'purging'
p187
I2
sS'wink'
p188
I1
sS'maintain'
p189
I2
sS'green'
p190
I1
sS'keeps'
p191
I1
sS'alack'
p192
I2
sS'mightier'
p193
I2
sS'wouldst'
p194
I1
sS'wind'
p195
I1
sS'bed-vow'
p196
I2
sS'determinate'
p197
I4
sS'couplement'
p198
I3
sS'after-loss'
p199
I3
sS'office'
p200
I2
sS'consent'
p201
I2
sS'choose'
p202
I1
sS'profaned'
p203
I2
sS'sickly'
p204
I2
sS'fortify'
p205
I3
sS'ghastly'
p206
I2
sS'budding'
p207
I2
sS"bestow'st"
p208
I2
sS'wrought'
p209
I1
sS'before'
p210
I2
sS'wilt'
p211
I1
sS'thrust'
p212
I1
sS'better'
p213
I2
sS'fade'
p214
I1
sS'carve'
p215
I1
sS'hidden'
p216
I2
sS'possessing'
p217
I3
sS'then'
p218
I1
sS'them'
p219
I1
sS'blots'
p220
I1
sS'weakness'
p221
I2
sS'thee'
p222
I1
sS"truth's"
p223
I1
sS'break'
p224
I1
sS"winter's"
p225
I2
sS'diseased'
p226
I2
sS'they'
p227
I1
sS'glazed'
p228
I1
sS"lovers'"
p229
I2
sS'silver'
p230
I2
sS'shadows'
p231
I2
sS'rhetoric'
p232
I3
sS'brightness'
p233
I2
sS'slavery'
p234
I3
sS'rocks'
p235
I1
sS'herald'
p236
I2
sS'victories'
p237
I3
sS'each'
p238
I1
sS'wantonly'
p239
I3
sS'dulness'
p240
I2
sS'went'
p241
I1
sS'side'
p242
I1
sS'luck'
p243
I1
sS'true-telling'
p244
I3
sS'woes'
p245
I1
sS'concord'
p246
I2
sS"'will'"
p247
I1
sS'taught'
p248
I1
sS'forgot'
p249
I2
sS'misprision'
p250
I3
sS'whit'
p251
I1
sS'truant'
p252
I2
sS'array'
p253
I2
sS'borne'
p254
I1
sS'contend'
p255
I2
sS'silvered'
p256
I2
sS'decree'
p257
I2
sS'god'
p258
I1
sS'forty'
p259
I2
sS'moiety'
p260
I3
sS'content'
p261
I2
sS'laid'
p262
I1
sS'heart-inflaming'
p263
I4
sS'unseen'
p264
I2
sS'heavenly'
p265
I3
sS'got'
p266
I1
sS'marigold'
p267
I3
sS'forth'
p268
I1
sS'assured'
p269
I2
sS'fadeth'
p270
I2
sS'hang'
p271
I1
sS'eternal'
p272
I3
sS'given'
p273
I2
sS'free'
p274
I1
sS'mourning'
p275
I2
sS'small'
p276
I1
sS'bestow'
p277
I2
sS'whereupon'
p278
I3
sS'rain'
p279
I1
sS'basest'
p280
I2
sS'crowned'
p281
I1
sS'mistress'
p282
I2
sS'knit'
p283
I1
sS"receiv'st"
p284
I2
sS'created'
p285
I2
sS'days'
p286
I1
sS'ordering'
p287
I3
sS'renew'
p288
I2
sS'tempting'
p289
I2
sS'potions'
p290
I2
sS'loud'
p291
I1
sS'ruinate'
p292
I3
sS'penury'
p293
I3
sS'separable'
p294
I4
sS'untutored'
p295
I3
sS'already'
p296
I3
sS'hearsay'
p297
I2
sS"'greeing"
p298
I2
sS'maladies'
p299
I3
sS'hearing'
p300
I2
sS'workings'
p301
I2
sS'featured'
p302
I2
sS'another'
p303
I3
sS'sober'
p304
I3
sS'filching'
p305
I2
sS'exchequer'
p306
I3
sS'usurer'
p307
I3
sS'their'
p308
I1
sS'top'
p309
I1
sS'hawks'
p310
I1
sS'millioned'
p311
I2
sS'master'
p312
I2
sS'too'
p313
I1
sS'dwell'
p314
I1
sS'bitter'
p315
I2
sS'feathers'
p316
I2
sS'griefs'
p317
I1
sS'took'
p318
I1
sS'wisdom'
p319
I2
sS'wardrobe'
p320
I2
sS"youth's"
p321
I1
sS'character'
p322
I3
sS'begins'
p323
I2
sS'distance'
p324
I2
sS'coward'
p325
I2
sS"mother's"
p326
I2
sS'bitterness'
p327
I3
sS'idly'
p328
I2
sS'matter'
p329
I2
sS'idle'
p330
I2
sS'inheritors'
p331
I4
sS'flame'
p332
I1
sS'speaking'
p333
I2
sS'deserving'
p334
I3
sS'knights'
p335
I1
sS'feeling'
p336
I2
sS'powers'
p337
I2
sS'swift-footed'
p338
I3
sS'fashion'
p339
I2
sS'sees'
p340
I1
sS'hue'
p341
I1
sS"mind's"
p342
I1
sS'modern'
p343
I2
sS'mind'
p344
I1
sS'mine'
p345
I1
sS'loathsome'
p346
I2
sS'manner'
p347
I2
sS'bewailed'
p348
I2
sS"deserv'st"
p349
I2
sS'churl'
p350
I1
sS'seem'
p351
I1
sS'seek'
p352
I1
sS'tells'
p353
I1
sS'contents'
p354
I2
sS'praising'
p355
I2
sS'strength'
p356
I1
sS'snow'
p357
I1
sS'chest'
p358
I1
sS'subjects'
p359
I2
sS'laughed'
p360
I1
sS'pilgrimage'
p361
I3
sS'rider'
p362
I2
sS'maiden'
p363
I2
sS'though'
p364
I1
sS'object'
p365
I2
sS'what'
p366
I1
sS'dulling'
p367
I2
sS'errors'
p368
I2
sS'disarmed'
p369
I2
sS'grave'
p370
I1
sS'shalt'
p371
I1
sS'constancy'
p372
I3
sS'foist'
p373
I1
sS'flow'
p374
I1
sS'breathes'
p375
I1
sS'spend'
p376
I1
sS'points'
p377
I1
sS'sum'
p378
I1
sS'fitted'
p379
I2
sS'reserve'
p380
I2
sS'discontent'
p381
I3
sS'bait'
p382
I1
sS'his'
p383
I1
sS'enjoyer'
p384
I3
sS'ending'
p385
I2
sS'showing'
p386
I2
sS'poison'
p387
I2
sS'earth'
p388
I1
sS'bail'
p389
I1
sS'enjoyed'
p390
I2
sS'touches'
p391
I2
sS'busy'
p392
I2
sS'proposed'
p393
I2
sS'spite'
p394
I1
sS"woman's"
p395
I2
sS'spites'
p396
I1
sS'cupid'
p397
I2
sS'bliss'
p398
I1
sS"stick'st"
p399
I1
sS'rich'
p400
I1
sS'pursuing'
p401
I3
sS'mend'
p402
I1
sS"'thou"
p403
I1
sS'soundless'
p404
I2
sS'borrowed'
p405
I2
sS'do'
p406
I2
sS'blenches'
p407
I2
sS'forsworn'
p408
I2
sS'stop'
p409
I1
sS'perceive'
p410
I2
sS'leisure'
p411
I2
sS'raiment'
p412
I2
sS'gored'
p413
I1
sS'bootless'
p414
I2
sS'despite'
p415
I2
sS'report'
p416
I2
sS'saturn'
p417
I2
sS'seemly'
p418
I2
sS'runs'
p419
I1
sS'bar'
p420
I1
sS"o'er"
p421
I1
sS'thrusts'
p422
I1
sS'public'
p423
I2
sS'twice'
p424
I1
sS'eyelids'
p425
I2
sS'esteeming'
p426
I3
sS'hasten'
p427
I2
sS'steal'
p428
I1
sS'thanks'
p429
I1
sS'unprovident'
p430
I4
sS'penance'
p431
I2
sS"wond'ring"
p432
I2
sS'unrespected'
p433
I3
sS'fair'
p434
I1
sS'habit'
p435
I2
sS'imitate'
p436
I3
sS'proclaims'
p437
I2
sS'depends'
p438
I2
sS'corrupt'
p439
I2
sS'best'
p440
I1
sS'subject'
p441
I2
sS'said'
p442
I1
sS'temptation'
p443
I3
sS"bett'ring"
p444
I2
sS'away'
p445
I2
sS'sail'
p446
I1
sS'bier'
p447
I1
sS'injuries'
p448
I3
sS'wilful-slow'
p449
I3
sS'mud'
p450
I1
sS'score'
p451
I1
sS'finger'
p452
I2
sS'pebbled'
p453
I2
sS'scorn'
p454
I1
sS'drawn'
p455
I1
sS'enlighten'
p456
I3
sS'preserve'
p457
I2
sS'warrior'
p458
I2
sS'we'
p459
I1
sS'men'
p460
I1
sS'terms'
p461
I1
sS'parallels'
p462
I3
sS'nature'
p463
I2
sS'lover'
p464
I2
sS'weak'
p465
I1
sS'ignorance'
p466
I3
sS'religious'
p467
I3
sS'authorizing'
p468
I4
sS'disdaineth'
p469
I3
sS'wear'
p470
I1
sS'diest'
p471
I1
sS'news'
p472
I1
sS'debt'
p473
I1
sS'pity'
p474
I2
sS'foes'
p475
I1
sS'goddess'
p476
I2
sS'accident'
p477
I3
sS'disdain'
p478
I2
sS'fault'
p479
I1
sS'ill'
p480
I1
sS'against'
p481
I2
sS'brag'
p482
I1
sS'receives'
p483
I2
sS'faces'
p484
I2
sS'exceeds'
p485
I2
sS'expense'
p486
I2
sS'groans'
p487
I1
sS'asked'
p488
I1
sS'vexed'
p489
I1
sS'honouring'
p490
I3
sS'burthen'
p491
I2
sS'height'
p492
I1
sS'hers'
p493
I1
sS'springs'
p494
I1
sS'trust'
p495
I1
sS'heals'
p496
I1
sS'speak'
p497
I1
sS'petty'
p498
I2
sS'unhappily'
p499
I4
sS'puts'
p500
I1
sS'hues'
p501
I1
sS'time-bettering'
p502
I4
sS'three'
p503
I1
sS'been'
p504
I1
sS'particulars'
p505
I4
sS'twain'
p506
I1
sS'presagers'
p507
I3
sS'afloat'
p508
I2
sS'interest'
p509
I3
sS'incertainty'
p510
I4
sS'privilege'
p511
I3
sS'lovely'
p512
I2
sS'thrice'
p513
I1
sS'idol'
p514
I2
sS'life'
p515
I1
sS"brav'ry"
p516
I2
sS'easy'
p517
I2
sS'erred'
p518
I1
sS'drugs'
p519
I1
sS'pointing'
p520
I2
sS'decrepit'
p521
I3
sS'dote'
p522
I1
sS'child'
p523
I1
sS'catch'
p524
I1
sS"ne'er-cloying"
p525
I3
sS'doth'
p526
I1
sS'erst'
p527
I1
sS'gracious'
p528
I2
sS'play'
p529
I1
sS'physician'
p530
I3
sS'east'
p531
I1
sS'gentle'
p532
I2
sS'air'
p533
I1
sS'lesser'
p534
I2
sS'ugly'
p535
I2
sS'near'
p536
I1
sS'suppose'
p537
I2
sS'aid'
p538
I1
sS'voice'
p539
I1
sS'weakens'
p540
I2
sS'recured'
p541
I2
sS'is'
p542
I1
sS'it'
p543
I1
sS'defeated'
p544
I2
sS'shame'
p545
I1
sS'to-morrow'
p546
I3
sS'splendour'
p547
I2
sS'in'
p548
I1
sS'bounteous'
p549
I3
sS'if'
p550
I1
sS'grown'
p551
I1
sS'wooing'
p552
I2
sS'memorial'
p553
I4
sS'lacking'
p554
I2
sS'cools'
p555
I1
sS'patent'
p556
I2
sS'suggest'
p557
I2
sS'make'
p558
I1
sS'wound'
p559
I1
sS"lords'"
p560
I1
sS'beside'
p561
I2
sS"th'"
p562
I1
sS'several'
p563
I3
sS'grows'
p564
I1
sS'entitled'
p565
I3
sS'lusty'
p566
I2
sS'fairly'
p567
I2
sS'thereof'
p568
I2
sS'tops'
p569
I1
sS'evil'
p570
I2
sS'hand'
p571
I1
sS'delight'
p572
I2
sS'supposing'
p573
I3
sS'jealous'
p574
I2
sS'bequest'
p575
I2
sS'blamed'
p576
I1
sS'tune'
p577
I1
sS'censures'
p578
I2
sS'kept'
p579
I1
sS'thy'
p580
I1
sS'singleness'
p581
I3
sS'askance'
p582
I2
sS'possessed'
p583
I2
sS'humble'
p584
I2
sS'inherit'
p585
I3
sS'ocean'
p586
I2
sS'ragged'
p587
I2
sS'quest'
p588
I1
sS'greatest'
p589
I1
sS'incapable'
p590
I4
sS'mother'
p591
I2
sS'hearts'
p592
I1
sS'the'
p593
I1
sS'cure'
p594
I1
sS'yours'
p595
I1
sS'left'
p596
I1
sS'just'
p597
I1
sS'wasteful'
p598
I2
sS'yea'
p599
I1
sS"poet's"
p600
I2
sS'unfair'
p601
I2
sS'repose'
p602
I2
sS'verses'
p603
I2
sS'maketh'
p604
I2
sS'farther'
p605
I2
sS'swears'
p606
I1
sS'prognosticate'
p607
I4
sS'plight'
p608
I1
sS'yet'
p609
I1
sS'succeeding'
p610
I3
sS'vices'
p611
I2
sS'adding'
p612
I2
sS'strangle'
p613
I2
sS'dearer'
p614
I2
sS'compeers'
p615
I2
sS'had'
p616
I1
sS'about'
p617
I2
sS'alchemy'
p618
I3
sS'belongs'
p619
I2
sS'beloved'
p620
I3
sS'prison'
p621
I2
sS'hap'
p622
I1
sS'pitiful'
p623
I3
sS'save'
p624
I1
sS'gave'
p625
I1
sS"others'"
p626
I2
sS'dignity'
p627
I3
sS'looks'
p628
I1
sS'reviewest'
p629
I3
sS'birth'
p630
I1
sS'wanting'
p631
I2
sS'shadow'
p632
I2
sS'dreams'
p633
I1
sS"picture's"
p634
I2
sS'desire'
p635
I2
sS'brought'
p636
I1
sS"feed'st"
p637
I1
sS'gift'
p638
I1
sS'new-found'
p639
I2
sS'vilest'
p640
I2
sS'offices'
p641
I3
sS'night'
p642
I1
sS'hung'
p643
I1
sS'antique'
p644
I2
sS'right'
p645
I1
sS'old'
p646
I1
sS'flatter'
p647
I2
sS'all-oblivious'
p648
I4
sS'deaf'
p649
I1
sS'short-numbered'
p650
I3
sS'dead'
p651
I1
sS'born'
p652
I1
sS'winds'
p653
I1
sS'kind-hearted'
p654
I3
sS'dear'
p655
I1
sS'pain'
p656
I1
sS'bore'
p657
I1
sS'creep'
p658
I1
sS'enemies'
p659
I3
sS'for'
p660
I1
sS"bosom's"
p661
I2
sS'rehearse'
p662
I2
sS'comments'
p663
I2
sS'foe'
p664
I1
sS'drudge'
p665
I1
sS'who'
p666
I1
sS'bold'
p667
I1
sS'burn'
p668
I1
sS'translated'
p669
I3
sS'shifting'
p670
I2
sS'losing'
p671
I2
sS'all-tyrant'
p672
I3
sS'peep'
p673
I1
sS'disdains'
p674
I2
sS'shaken'
p675
I2
sS'takes'
p676
I1
sS'theirs'
p677
I1
sS'coral'
p678
I2
sS'haply'
p679
I2
sS'frailer'
p680
I2
sS'o'
p681
I1
sS'despair'
p682
I2
sS'cherish'
p683
I2
sS'commit'
p684
I2
sS'lacked'
p685
I1
sS'bath'
p686
I1
sS'raised'
p687
I1
sS'contains'
p688
I2
sS'presence'
p689
I2
sS'civil'
p690
I2
sS'pays'
p691
I1
sS'tract'
p692
I1
sS'delighted'
p693
I3
sS'son'
p694
I1
sS'down'
p695
I1
sS'lies'
p696
I1
sS'refined'
p697
I2
sS"pour'st"
p698
I1
sS'often'
p699
I2
sS'strangely'
p700
I2
sS'despised'
p701
I2
sS'jealousy'
p702
I3
sS'sovereign'
p703
I3
sS'tame'
p704
I1
sS'virgin'
p705
I2
sS'way'
p706
I1
sS'call'
p707
I1
sS'was'
p708
I1
sS'war'
p709
I1
sS'carcanet'
p710
I3
sS'head'
p711
I1
sS'perfumes'
p712
I2
sS'form'
p713
I1
sS'afresh'
p714
I2
sS'crown'
p715
I1
sS'becoming'
p716
I3
sS'remover'
p717
I3
sS'fore'
p718
I1
sS'heinous'
p719
I2
sS'garments'
p720
I2
sS"travel's"
p721
I2
sS'perfumed'
p722
I2
sS'odours'
p723
I2
sS'astonished'
p724
I3
sS'blindness'
p725
I2
sS'removed'
p726
I2
sS'true'
p727
I1
sS'deepest'
p728
I2
sS'absent'
p729
I2
sS'lilies'
p730
I2
sS'captive'
p731
I2
sS'extremity'
p732
I4
sS"for't"
p733
I1
sS'bids'
p734
I1
sS'ruined'
p735
I1
sS'crystal'
p736
I2
sS'unfathered'
p737
I3
sS'adore'
p738
I2
sS'lays'
p739
I1
sS'engraft'
p740
I2
sS'bide'
p741
I1
sS'latch'
p742
I1
sS'trim'
p743
I1
sS'proved'
p744
I1
sS'sight'
p745
I1
sS'nought'
p746
I1
sS'sinful'
p747
I2
sS'steep-up'
p748
I2
sS"beauty's"
p749
I2
sS'huswife'
p750
I2
sS'sometime'
p751
I2
sS'subsist'
p752
I2
sS'shines'
p753
I1
sS'face'
p754
I1
sS'injurious'
p755
I4
sS'posting'
p756
I2
sS'willingly'
p757
I3
sS'pipe'
p758
I1
sS'dying'
p759
I2
sS'no'
p760
I2
sS'excel'
p761
I2
sS"lov'st"
p762
I1
sS'actor'
p763
I2
sS'thriftless'
p764
I2
sS'despising'
p765
I3
sS'falsely'
p766
I2
sS'papers'
p767
I2
sS'tie'
p768
I1
sS'vanished'
p769
I2
sS'smell'
p770
I1
sS'eternity'
p771
I4
sS'picture'
p772
I2
sS'intend'
p773
I2
sS'phoenix'
p774
I2
sS'delivered'
p775
I3
sS'dies'
p776
I1
sS'welcome'
p777
I2
sS'first-born'
p778
I2
sS'present-absent'
p779
I4
sS'fell'
p780
I1
sS'reign'
p781
I1
sS'rolling'
p782
I2
sS'pierced'
p783
I1
sS'died'
p784
I1
sS'wrackful'
p785
I2
sS'to-day'
p786
I1
sS'longer'
p787
I2
sS'blushing'
p788
I2
sS'daily'
p789
I2
sS'cheater'
p790
I2
sS'teeth'
p791
I1
sS'controlling'
p792
I3
sS'buriest'
p793
I2
sS'restored'
p794
I2
sS'songs'
p795
I1
sS'deface'
p796
I2
sS'whoever'
p797
I3
sS"perceiv'st"
p798
I2
sS'souls'
p799
I1
sS'vermilion'
p800
I3
sS'engrafted'
p801
I3
sS'leads'
p802
I1
sS'robbing'
p803
I2
sS'idolatry'
p804
I4
sS'abundant'
p805
I3
sS'retention'
p806
I3
sS'doom'
p807
I1
sS'praises'
p808
I2
sS'april'
p809
I2
sS'father'
p810
I2
sS'pen'
p811
I1
sS'vex'
p812
I1
sS'charge'
p813
I1
sS'praised'
p814
I1
sS'suffered'
p815
I2
sS'furrows'
p816
I2
sS'me'
p817
I1
sS'strumpeted'
p818
I3
sS'string'
p819
I1
sS'advantage'
p820
I3
sS'denied'
p821
I2
sS'none'
p822
I1
sS'votary'
p823
I3
sS'mourn'
p824
I1
sS'lest'
p825
I1
sS'advised'
p826
I2
sS'locked'
p827
I1
sS'trouble'
p828
I2
sS'feeble'
p829
I2
sS'cool'
p830
I1
sS"soul's"
p831
I1
sS'perceived'
p832
I2
sS'clouds'
p833
I1
sS'level'
p834
I2
sS'did'
p835
I1
sS'die'
p836
I1
sS'dig'
p837
I1
sS"best'"
p838
I1
sS'leave'
p839
I1
sS'excellence'
p840
I3
sS'quick'
p841
I1
sS'prevent'
p842
I2
sS'brave'
p843
I1
sS'says'
p844
I1
sS'fearing'
p845
I2
sS"offender's"
p846
I3
sS'double-vantage'
p847
I4
sS'sigh'
p848
I1
sS'wherefore'
p849
I2
sS'cost'
p850
I1
sS'run'
p851
I1
sS'rough'
p852
I1
sS'drinks'
p853
I1
sS'hymn'
p854
I1
sS"fleet'st"
p855
I1
sS'curse'
p856
I1
sS'appear'
p857
I2
sS'assistance'
p858
I3
sS'contracted'
p859
I3
sS'favour'
p860
I2
sS'debate'
p861
I2
sS'suspect'
p862
I2
sS'goes'
p863
I1
sS'view'
p864
I1
sS'appeal'
p865
I2
sS'filled'
p866
I1
sS"april's"
p867
I2
sS'prescriptions'
p868
I3
sS'wail'
p869
I1
sS'heavily'
p870
I3
sS'honour'
p871
I1
sS'clerk'
p872
I1
sS'water'
p873
I2
sS'entertain'
p874
I3
sS'alone'
p875
I2
sS'appears'
p876
I2
sS'change'
p877
I1
sS'blunter'
p878
I2
sS'boy'
p879
I1
sS'boast'
p880
I1
sS'my'
p881
I1
sS'guilty'
p882
I2
sS'bow'
p883
I1
sS'spheres'
p884
I1
sS'recounting'
p885
I3
sS'stained'
p886
I1
sS'love'
p887
I1
sS'humour'
p888
I1
sS'tempteth'
p889
I2
sS'bloody'
p890
I2
sS'withal'
p891
I2
sS'betraying'
p892
I3
sS'surmount'
p893
I2
sS'swallowed'
p894
I2
sS"suff'ring"
p895
I2
sS"o'erworn"
p896
I2
sS'wealth'
p897
I1
sS'prove'
p898
I1
sS'sake'
p899
I3
sS'confounded'
p900
I3
sS'angry'
p901
I2
sS'give'
p902
I1
sS'only'
p903
I2
sS'by'
p904
I1
sS'wrongs'
p905
I1
sS'live'
p906
I1
sS'going'
p907
I2
sS'prey'
p908
I1
sS'memory'
p909
I3
sS'scope'
p910
I1
sS'loving'
p911
I2
sS"love's"
p912
I1
sS'riot'
p913
I2
sS'sessions'
p914
I2
sS'towers'
p915
I2
sS'share'
p916
I1
sS'acceptable'
p917
I4
sS"strength's"
p918
I1
sS'drown'
p919
I1
sS'everywhere'
p920
I3
sS'virtue'
p921
I2
sS'stain'
p922
I1
sS'epitaph'
p923
I3
sS'fly'
p924
I1
sS'honey'
p925
I2
sS'sheds'
p926
I1
sS'car'
p927
I1
sS'tresses'
p928
I2
sS'soul'
p929
I1
sS'purge'
p930
I1
sS'hardest'
p931
I2
sS'sour'
p932
I1
sS'can'
p933
I1
sS'believed'
p934
I2
sS'making'
p935
I2
sS"prevent'st"
p936
I2
sS'deceased'
p937
I2
sS'breeds'
p938
I1
sS'heart'
p939
I1
sS'dedicated'
p940
I1
sS"servant's"
p941
I2
sS'respose'
p942
I2
sS'figure'
p943
I2
sS'predict'
p944
I2
sS'well-tuned'
p945
I3
sS'distillation'
p946
I4
sS'heard'
p947
I1
sS'critic'
p948
I2
sS'purity'
p949
I3
sS'hides'
p950
I1
sS"mak'st"
p951
I1
sS'provoke'
p952
I2
sS'stole'
p953
I1
sS'churls'
p954
I1
sS'winter'
p955
I2
sS'allege'
p956
I2
sS'divided'
p957
I3
sS'monuments'
p958
I3
sS'vainly'
p959
I2
sS'pine'
p960
I1
sS"lour'st"
p961
I1
sS'write'
p962
I1
sS'till'
p963
I1
sS'sword'
p964
I1
sS'husbandry'
p965
I3
sS'sworn'
p966
I1
sS"eye's"
p967
I1
sS'map'
p968
I1
sS'mar'
p969
I1
sS'where-through'
p970
I2
sS'coming'
p971
I2
sS'may'
p972
I1
sS'use'
p973
I1
sS'spot'
p974
I1
sS'needs'
p975
I1
sS'mad'
p976
I1
sS'date'
p977
I1
sS'end'
p978
I1
sS'hateth'
p979
I2
sS'flourish'
p980
I2
sS'grow'
p981
I1
sS'man'
p982
I1
sS'temperate'
p983
I3
sS'neck'
p984
I1
sS'liquid'
p985
I2
sS'candles'
p986
I2
sS'needy'
p987
I2
sS'so'
p988
I1
sS'odour'
p989
I2
sS'deceive'
p990
I2
sS'thorns'
p991
I1
sS'tall'
p992
I1
sS'increase'
p993
I2
sS'augurs'
p994
I2
sS'serving'
p995
I2
sS'receivest'
p996
I3
sS'food'
p997
I1
sS'indeed'
p998
I2
sS'forfeit'
p999
I2
sS'wishing'
p1000
I2
sS'years'
p1001
I1
sS'course'
p1002
I1
sS'pitch'
p1003
I1
sS'cold'
p1004
I1
sS'still'
p1005
I1
sS'birds'
p1006
I1
sS'trifle'
p1007
I2
sS'limbs'
p1008
I1
sS'derive'
p1009
I2
sS'thank'
p1010
I1
sS'faults'
p1011
I1
sS'muses'
p1012
I2
sS'spur'
p1013
I1
sS'torn'
p1014
I1
sS'curls'
p1015
I1
sS"offence's"
p1016
I3
sS'maid'
p1017
I1
sS'spacious'
p1018
I2
sS"play'st"
p1019
I1
sS'policy'
p1020
I3
sS"stol'n"
p1021
I1
sS'main'
p1022
I1
sS'style'
p1023
I1
sS'conquest'
p1024
I2
sS'correspondence'
p1025
I4
sS'prime'
p1026
I1
sS'truest'
p1027
I2
sS'equipage'
p1028
I3
sS'thereby'
p1029
I2
sS'sooner'
p1030
I2
sS'bound'
p1031
I1
sS'records'
p1032
I2
sS'half'
p1033
I1
sS'not'
p1034
I1
sS'now'
p1035
I1
sS'twilight'
p1036
I2
sS'nor'
p1037
I1
sS'wont'
p1038
I1
sS'term'
p1039
I1
sS'name'
p1040
I1
sS'servant'
p1041
I2
sS'times'
p1042
I1
sS'drop'
p1043
I1
sS'veins'
p1044
I1
sS'seldom'
p1045
I2
sS'surfeit'
p1046
I2
sS"another's"
p1047
I3
sS'receipt'
p1048
I2
sS'richly'
p1049
I2
sS'fever'
p1050
I2
sS'farewell'
p1051
I2
sS'seeting'
p1052
I2
sS'year'
p1053
I1
sS'hymns'
p1054
I1
sS'living'
p1055
I2
sS'shown'
p1056
I1
sS'mouths'
p1057
I1
sS'space'
p1058
I1
sS'profit'
p1059
I4
sS'abide'
p1060
I2
sS'looking'
p1061
I2
sS'boundless'
p1062
I2
sS'grecian'
p1063
I2
sS'receiving'
p1064
I3
sS'correct'
p1065
I2
sS'shows'
p1066
I1
sS'worthiness'
p1067
I3
sS'state'
p1068
I1
sS'siege'
p1069
I1
sS'cars'
p1070
I1
sS'sweet-seasoned'
p1071
I3
sS'spies'
p1072
I1
sS'wits'
p1073
I1
sS'rebel'
p1074
I2
sS'plea'
p1075
I1
sS"feel'st"
p1076
I1
sS'care'
p1077
I1
sS'advance'
p1078
I2
sS"age's"
p1079
I2
sS'embassage'
p1080
I3
sS"widow's"
p1081
I2
sS'contented'
p1082
I3
sS'kingdoms'
p1083
I2
sS'honest'
p1084
I2
sS'motion'
p1085
I2
sS'thing'
p1086
I1
sS'thine'
p1087
I1
sS'place'
p1088
I1
sS'recompense'
p1089
I3
sS'sufferance'
p1090
I3
sS'widow'
p1091
I2
sS'star'
p1092
I1
sS'think'
p1093
I1
sS'frequent'
p1094
I2
sS'first'
p1095
I1
sS'blind'
p1096
I1
sS'mayst'
p1097
I1
sS'faculty'
p1098
I3
sS'one'
p1099
I1
sS'nativity'
p1100
I4
sS'consecrate'
p1101
I3
sS'fast'
p1102
I1
sS'directly'
p1103
I3
sS'habitation'
p1104
I4
sS'carry'
p1105
I2
sS'ill-used'
p1106
I2
sS'sounds'
p1107
I1
sS'fight'
p1108
I1
sS'open'
p1109
I2
sS'affords'
p1110
I2
sS'millions'
p1111
I2
sS'interchange'
p1112
I3
sS'little'
p1113
I2
sS'checked'
p1114
I1
sS'silent'
p1115
I2
sS'breed'
p1116
I1
sS'steep'
p1117
I1
sS'fiery'
p1118
I3
sS'bounty'
p1119
I2
sS'white'
p1120
I1
sS'utmost'
p1121
I2
sS"tiger's"
p1122
I2
sS'friend'
p1123
I1
sS'gives'
p1124
I1
sS'gaudy'
p1125
I2
sS'eyes'
p1126
I1
sS'pomp'
p1127
I1
sS'grant'
p1128
I1
sS'blazon'
p1129
I2
sS'that'
p1130
I1
sS'brains'
p1131
I1
sS"men's"
p1132
I1
sS'proving'
p1133
I2
sS'alas'
p1134
I2
sS'eyed'
p1135
I1
sS'girded'
p1136
I2
sS'copy'
p1137
I2
sS'than'
p1138
I1
sS"here's"
p1139
I1
sS'wide'
p1140
I1
sS'feeds'
p1141
I1
sS'wert'
p1142
I1
sS'require'
p1143
I2
sS'folly'
p1144
I2
sS'transferred'
p1145
I2
sS'were'
p1146
I1
sS'happy'
p1147
I2
sS'and'
p1148
I1
sS'angel'
p1149
I2
sS'slay'
p1150
I1
sS'correction'
p1151
I3
sS'confessed'
p1152
I2
sS'turned'
p1153
I1
sS'argument'
p1154
I3
sS'jewels'
p1155
I2
sS'voices'
p1156
I2
sS'entombed'
p1157
I2
sS'worms'
p1158
I1
sS'say'
p1159
I1
sS'faring'
p1160
I2
sS'buried'
p1161
I1
sS'foiled'
p1162
I1
sS'anger'
p1163
I2
sS'sap'
p1164
I1
sS'pry'
p1165
I1
sS'any'
p1166
I2
sS'elsewhere'
p1167
I2
sS'defaced'
p1168
I1
sS'describe'
p1169
I2
sS'mourners'
p1170
I2
sS'aside'
p1171
I2
sS'note'
p1172
I1
sS'wretch'
p1173
I1
sS'take'
p1174
I1
sS'resembling'
p1175
I3
sS'haste'
p1176
I1
sS'blunt'
p1177
I1
sS'flattered'
p1178
I2
sS'urge'
p1179
I1
sS'begin'
p1180
I2
sS'sure'
p1181
I1
sS'altered'
p1182
I2
sS'tallies'
p1183
I2
sS'knew'
p1184
I1
sS'clearer'
p1185
I2
sS'paid'
p1186
I1
sS'forgetful'
p1187
I3
sS'unkindness'
p1188
I3
sS'staineth'
p1189
I2
sS'flatterer'
p1190
I3
sS'successive'
p1191
I3
sS'winters'
p1192
I2
sS'pricked'
p1193
I1
sS'proud'
p1194
I1
sS'hungry'
p1195
I2
sS'wing'
p1196
I1
sS"perfect'st"
p1197
I2
sS'sunset'
p1198
I2
sS'amis'
p1199
I2
sS'glutton'
p1200
I2
sS'hear'
p1201
I1
sS'sourest'
p1202
I2
sS'laws'
p1203
I1
sS'shop'
p1204
I1
sS'show'
p1205
I1
sS'cheap'
p1206
I1
sS'merit'
p1207
I2
sS'trespass'
p1208
I2
sS'bright'
p1209
I1
sS'untold'
p1210
I2
sS'tend'
p1211
I1
sS'ground'
p1212
I1
sS'slow'
p1213
I1
sS'woos'
p1214
I1
sS'unkind'
p1215
I2
sS'stormy'
p1216
I2
sS'title'
p1217
I2
sS'treasure'
p1218
I2
sS'robs'
p1219
I1
sS'cloak'
p1220
I1
sS'crime'
p1221
I1
sS'tears'
p1222
I1
sS'wood'
p1223
I1
sS'black'
p1224
I1
sS'nurse'
p1225
I1
sS'partake'
p1226
I2
sS'robe'
p1227
I1
sS'wilfully'
p1228
I3
sS'hindmost'
p1229
I2
sS'get'
p1230
I1
sS"'tis"
p1231
I1
sS'limbecks'
p1232
I2
sS'truly'
p1233
I2
sS'cannot'
p1234
I2
sS'nearly'
p1235
I2
sS'dye'
p1236
I1
sS'closure'
p1237
I2
sS'orphans'
p1238
I2
sS'yield'
p1239
I1
sS'morning'
p1240
I2
sS'naked'
p1241
I2
sS'miles'
p1242
I1
sS'where'
p1243
I1
sS'husband'
p1244
I2
sS'signs'
p1245
I1
sS'up'
p1246
I1
sS"fortune's"
p1247
I2
sS'asleep'
p1248
I2
sS'expiate'
p1249
I3
sS'seal'
p1250
I1
sS'salutation'
p1251
I4
sS'sport'
p1252
I1
sS'purest'
p1253
I2
sS'wonder'
p1254
I2
sS'invoked'
p1255
I2
sS'tongue-tied'
p1256
I2
sS'compounds'
p1257
I2
sS'crooked'
p1258
I2
sS'review'
p1259
I2
sS'dateless'
p1260
I2
sS'ornament'
p1261
I3
sS'glorious'
p1262
I3
sS'behind'
p1263
I2
sS'departest'
p1264
I2
sS'complexion'
p1265
I3
sS'sable'
p1266
I2
sS'import'
p1267
I2
sS'enjoys'
p1268
I2
sS'presage'
p1269
I2
sS'untainted'
p1270
I3
sS'forsake'
p1271
I2
sS'anew'
p1272
I2
sS'eye'
p1273
I1
sS'discloses'
p1274
I3
sS'pluck'
p1275
I1
sS'blame'
p1276
I1
sS'countenance'
p1277
I3
sS'awards'
p1278
I2
sS'enfeebled'
p1279
I1
sS'profitless'
p1280
I3
sS'come'
p1281
I1
sS'grieved'
p1282
I1
sS'dates'
p1283
I1
sS'many'
p1284
I2
sS'region'
p1285
I2
sS'quiet'
p1286
I2
sS'called'
p1287
I1
sS'dwellers'
p1288
I2
sS'reigns'
p1289
I1
sS"sea's"
p1290
I1
sS'duty'
p1291
I2
sS'among'
p1292
I2
sS'unthrifts'
p1293
I2
sS'madness'
p1294
I2
sS'afterwards'
p1295
I3
sS'unthrifty'
p1296
I3
sS'swerving'
p1297
I2
sS'dispatch'
p1298
I2
sS'eisel'
p1299
I2
sS'slain'
p1300
I1
sS'stretched'
p1301
I2
sS'learning'
p1302
I2
sS'disgrace'
p1303
I2
sS'famished'
p1304
I2
sS'consider'
p1305
I3
sS'boat'
p1306
I1
sS'doctor-like'
p1307
I3
sS'arts'
p1308
I1
sS'self-doing'
p1309
I3
sS'west'
p1310
I1
sS'absence'
p1311
I2
sS'mark'
p1312
I1
sS'breath'
p1313
I1
sS'subscribes'
p1314
I2
sS"self's"
p1315
I1
sS'beams'
p1316
I1
sS'mars'
p1317
I1
sS'informer'
p1318
I3
sS'straying'
p1319
I2
sS'robbed'
p1320
I1
sS'thousand'
p1321
I2
sS'blessing'
p1322
I2
sS'nobler'
p1323
I1
sS'figured'
p1324
I2
sS'wake'
p1325
I1
sS'external'
p1326
I3
sS'frantic-mad'
p1327
I3
sS'masonry'
p1328
I3
sS'careful'
p1329
I2
sS'deceivest'
p1330
I3
sS'those'
p1331
I1
sS'case'
p1332
I1
sS'profane'
p1333
I2
sS'rarities'
p1334
I3
sS'these'
p1335
I1
sS'sheaves'
p1336
I1
sS'compile'
p1337
I2
sS'cast'
p1338
I1
sS'proves'
p1339
I1
sS'graven'
p1340
I2
sS'cancelled'
p1341
I2
sS'situation'
p1342
I4
sS'endured'
p1343
I2
sS'anchored'
p1344
I2
sS'forbear'
p1345
I2
sS'endowed'
p1346
I2
sS'brow'
p1347
I1
sS'gluttoning'
p1348
I3
sS'middle'
p1349
I2
sS'limping'
p1350
I2
sS'commanded'
p1351
I3
sS'fame'
p1352
I1
sS'different'
p1353
I3
sS'harsh'
p1354
I1
sS"tyrants'"
p1355
I2
sS'strains'
p1356
I1
sS'pay'
p1357
I1
sS'same'
p1358
I1
sS'check'
p1359
I1
sS'shifts'
p1360
I1
sS'enrich'
p1361
I2
sS'streams'
p1362
I1
sS"'truth"
p1363
I1
sS'wires'
p1364
I1
sS'sickness'
p1365
I2
sS'tyrannous'
p1366
I3
sS'defy'
p1367
I2
sS'weed'
p1368
I1
sS'fruit'
p1369
I1
sS'scorned'
p1370
I1
sS'extern'
p1371
I2
sS'changing'
p1372
I2
sS'weep'
p1373
I1
sS"slander's"
p1374
I2
sS'vowed'
p1375
I1
sS'vantage'
p1376
I2
sS'dear-purchased'
p1377
I3
sS'throned'
p1378
I1
sS'vacant'
p1379
I2
sS'costs'
p1380
I1
sS'relief'
p1381
I2
sS'justify'
p1382
I3
sS'distills'
p1383
I2
sS'summer'
p1384
I2
sS'ransoms'
p1385
I2
sS'being'
p1386
I2
sS'when'
p1387
I1
sS'weeds'
p1388
I1
sS'shamefully'
p1389
I3
sS'over-plus'
p1390
I3
sS'imprint'
p1391
I2
sS'bareness'
p1392
I2
sS'cease'
p1393
I1
sS'disperse'
p1394
I2
sS'aspect'
p1395
I2
sS'touch'
p1396
I1
sS'speed'
p1397
I1
sS'guides'
p1398
I1
sS'blow'
p1399
I1
sS'renewed'
p1400
I2
sS'unwooed'
p1401
I2
sS'thinking'
p1402
I2
sS'rose'
p1403
I1
sS'seems'
p1404
I1
sS"summer's"
p1405
I2
sS"summers'"
p1406
I2
sS'verse'
p1407
I1
sS'suppressed'
p1408
I2
sS'worthier'
p1409
I2
sS'dully'
p1410
I2
sS'thoughts'
p1411
I1
sS'valley-fountain'
p1412
I4
sS'struck'
p1413
I1
sS'kingdom'
p1414
I2
sS'frown'
p1415
I1
sS'kills'
p1416
I1
sS'read'
p1417
I1
sS'offence'
p1418
I2
sS'sums'
p1419
I1
sS'dart'
p1420
I1
sS'dark'
p1421
I1
sS'traffic'
p1422
I2
sS'confined'
p1423
I1
sS'world'
p1424
I1
sS'reap'
p1425
I1
sS'dare'
p1426
I1
sS'acquainted'
p1427
I3
sS'fortune'
p1428
I2
sS'achieve'
p1429
I2
sS'miracle'
p1430
I3
sS'benefit'
p1431
I3
sS'beguiled'
p1432
I1
sS'either'
p1433
I2
sS'robbery'
p1434
I3
sS'offenders'
p1435
I3
sS'tombed'
p1436
I1
sS'fulfil'
p1437
I2
sS'falsehood'
p1438
I2
sS'elements'
p1439
I3
sS'table'
p1440
I2
sS'images'
p1441
I3
sS'divine'
p1442
I2
sS'thinks'
p1443
I1
sS'gross'
p1444
I1
sS'bones'
p1445
I1
sS'courses'
p1446
I2
sS'noon'
p1447
I1
sS'besiege'
p1448
I2
sS'stops'
p1449
I1
sS'moon'
p1450
I1
sS'forgoing'
p1451
I3
sS'expressing'
p1452
I3
sS'self-loving'
p1453
I3
sS'knife'
p1454
I1
sS'destroys'
p1455
I2
sS'ever-fixed'
p1456
I3
sS'power'
p1457
I2
sS'seconds'
p1458
I2
sS'strained'
p1459
I1
sS'olives'
p1460
I2
sS'forgetfulness'
p1461
I4
sS'broken'
p1462
I2
sS"o'er-green"
p1463
I2
sS'assemble'
p1464
I3
sS'throw'
p1465
I1
sS'renewest'
p1466
I2
sS'on'
p1467
I1
sS'stone'
p1468
I1
sS'subdued'
p1469
I2
sS'zealous'
p1470
I2
sS'of'
p1471
I1
sS'choirs'
p1472
I2
sS'feil'
p1473
I1
sS'greater'
p1474
I2
sS'whence'
p1475
I1
sS'journey'
p1476
I2
sS'wolf'
p1477
I1
sS'stand'
p1478
I1
sS'act'
p1479
I1
sS'mixed'
p1480
I1
sS'bond'
p1481
I1
sS'or'
p1482
I1
sS'imitated'
p1483
I4
sS'ladies'
p1484
I2
sS'long-lived'
p1485
I2
sS'burning'
p1486
I2
sS'weighs'
p1487
I1
sS'distempered'
p1488
I3
sS'image'
p1489
I2
sS'blessed'
p1490
I2
sS'rising'
p1491
I2
sS'lively'
p1492
I2
sS'dreaming'
p1493
I2
sS'blesses'
p1494
I2
sS'your'
p1495
I1
sS'buds'
p1496
I1
sS"oaths'"
p1497
I1
sS'her'
p1498
I1
sS'there'
p1499
I1
sS'disposed'
p1500
I2
sS'desert'
p1501
I2
sS'stealth'
p1502
I1
sS'gaze'
p1503
I1
sS'low'
p1504
I1
sS'stars'
p1505
I1
sS'house'
p1506
I1
sS'groan'
p1507
I1
sS'enough'
p1508
I2
sS"dyer's"
p1509
I2
sS'strikes'
p1510
I1
sS'meetness'
p1511
I2
sS'land'
p1512
I1
sS'brain'
p1513
I1
sS'with'
p1514
I1
sS'faster'
p1515
I2
sS'abused'
p1516
I2
sS'applying'
p1517
I3
sS'naming'
p1518
I2
sS'rage'
p1519
I1
sS'niggarding'
p1520
I3
sS'self-same'
p1521
I2
sS'impute'
p1522
I2
sS'abuses'
p1523
I3
sS'define'
p1524
I2
sS'minded'
p1525
I2
sS'strongly'
p1526
I2
sS'gone'
p1527
I1
sS'intents'
p1528
I2
sS'palate'
p1529
I2
sS'surly'
p1530
I2
sS'taste'
p1531
I1
sS'ah'
p1532
I1
sS'accents'
p1533
I2
sS'stealing'
p1534
I2
sS'am'
p1535
I1
sS'deep'
p1536
I1
sS'an'
p1537
I1
sS'toiled'
p1538
I1
sS'excusing'
p1539
I3
sS'deem'
p1540
I1
sS'carved'
p1541
I1
sS'walks'
p1542
I1
sS'ay'
p1543
I1
sS'horse'
p1544
I1
sS'spends'
p1545
I1
sS'fill'
p1546
I1
sS'again'
p1547
I2
sS'proudly'
p1548
I2
sS"judgment's"
p1549
I2
sS'deserve'
p1550
I2
sS"helen's"
p1551
I2
sS'repent'
p1552
I2
sS'orient'
p1553
I3
sS'roses'
p1554
I2
sS'you'
p1555
I1
sS'abysm'
p1556
I2
sS'poor'
p1557
I1
sS'time'
p1558
I1
sS'gifts'
p1559
I1
sS'lovers'
p1560
I2
sS'suited'
p1561
I2
sS'brass'
p1562
I1
sS'celestial'
p1563
I3
sS'sequent'
p1564
I2
sS'building'
p1565
I2
sS'backward'
p1566
I2
sS'remote'
p1567
I2
sS'calls'
p1568
I1
sS'wife'
p1569
I1
sS"life's"
p1570
I1
sS'dyed'
p1571
I1
sS'extant'
p1572
I2
sS'repay'
p1573
I2
sS'hugely'
p1574
I2
sS'treason'
p1575
I2
sS'apparel'
p1576
I3
sS'tanned'
p1577
I1
sS'unset'
p1578
I2
sS'maturity'
p1579
I4
sS'all'
p1580
I1
sS'forget'
p1581
I2
sS'vile'
p1582
I1
sS'suns'
p1583
I1
sS'forbidden'
p1584
I3
sS'lack'
p1585
I1
sS'neigh'
p1586
I1
sS'bosoms'
p1587
I2
sS'importune'
p1588
I3
sS'seals'
p1589
I1
sS'unrest'
p1590
I2
sS"'gainst"
p1591
I1
sS'forged'
p1592
I1
sS'welfare'
p1593
I2
sS'follow'
p1594
I2
sS'meditation'
p1595
I4
sS'lace'
p1596
I1
sS'children'
p1597
I2
sS'oaths'
p1598
I1
sS'wanton'
p1599
I2
sS'homage'
p1600
I2
sS'sparkling'
p1601
I2
sS'spirit'
p1602
I2
sS"keep'st"
p1603
I1
sS'to'
p1604
I1
sS'painter'
p1605
I2
sS'dressing'
p1606
I2
sS"is't"
p1607
I1
sS'health'
p1608
I1
sS'hideous'
p1609
I3
sS'subtleties'
p1610
I3
sS'sound'
p1611
I1
sS'woman'
p1612
I2
sS'worse'
p1613
I1
sS'song'
p1614
I1
sS'very'
p1615
I2
sS'coloured'
p1616
I1
sS'oblation'
p1617
I3
sS'medicine'
p1618
I3
sS'worst'
p1619
I1
sS'invent'
p1620
I2
sS'fall'
p1621
I1
sS'hems'
p1622
I1
sS'difference'
p1623
I3
sS'vouchsafe'
p1624
I2
sS'heaven'
p1625
I2
sS'list'
p1626
I1
sS'large'
p1627
I1
sS'sang'
p1628
I1
sS'plain'
p1629
I1
sS'mistaking'
p1630
I3
sS"t'"
p1631
I0
sS'wantonness'
p1632
I3
sS"i'll"
p1633
I1
sS'quicker'
p1634
I2
sS'ten'
p1635
I1
sS'outworn'
p1636
I2
sS'lascivious'
p1637
I4
sS'past'
p1638
I1
sS'go'
p1639
I1
sS'invention'
p1640
I3
sS'perspective'
p1641
I3
sS'pass'
p1642
I1
sS'harder'
p1643
I2
sS'affable'
p1644
I3
sS'befriends'
p1645
I2
sS'crests'
p1646
I1
sS'creatures'
p1647
I2
sS'conscience'
p1648
I2
sS'gazers'
p1649
I2
sS'dial'
p1650
I2
sS'defence'
p1651
I2
sS'darkness'
p1652
I2
sS'sweetly'
p1653
I2
sS'clock'
p1654
I1
sS'sun'
p1655
I1
sS'wrecked'
p1656
I1
sS'gardens'
p1657
I2
sS'brief'
p1658
I1
sS'prevailed'
p1659
I2
sS'foison'
p1660
I2
sS'ill-wresting'
p1661
I3
sS'learned'
p1662
I2
sS'doting'
p1663
I2
sS'themselves'
p1664
I2
sS'womb'
p1665
I1
sS'quenched'
p1666
I1
sS'full'
p1667
I1
sS'ranged'
p1668
I1
sS'love-suit'
p1669
I2
sS'answers'
p1670
I2
sS'revenge'
p1671
I2
sS'hours'
p1672
I1
sS'ensconce'
p1673
I2
sS'excess'
p1674
I2
sS'hast'
p1675
I1
sS'depend'
p1676
I2
sS'yellowed'
p1677
I2
sS'respect'
p1678
I2
sS'enmity'
p1679
I3
sS'losses'
p1680
I1
sS'dearths'
p1681
I1
sS'qualify'
p1682
I3
sS'within'
p1683
I2
sS'action'
p1684
I2
sS'steepy'
p1685
I2
sS'sweetness'
p1686
I2
sS"day's"
p1687
I1
sS'depart'
p1688
I2
sS'impiety'
p1689
I4
sS'tendered'
p1690
I2
sS"lion's"
p1691
I2
sS'estimate'
p1692
I3
sS'unthrift'
p1693
I2
sS'self-love'
p1694
I2
sS'taker'
p1695
I2
sS'proceed'
p1696
I2
sS'cherubins'
p1697
I3
sS'faint'
p1698
I1
sS'two'
p1699
I1
sS'pearl'
p1700
I1
sS'morn'
p1701
I1
sS'soil'
p1702
I1
sS'taken'
p1703
I2
sS'injury'
p1704
I3
sS'more'
p1705
I1
sS'horses'
p1706
I2
sS'wretched'
p1707
I2
sS'unlearned'
p1708
I3
sS'knows'
p1709
I1
sS'delves'
p1710
I1
sS"ow'st"
p1711
I1
sS'foregone'
p1712
I1
sS'spoils'
p1713
I1
sS'excuse'
p1714
I2
sS'lameness'
p1715
I2
sS"dian's"
p1716
I2
sS'broke'
p1717
I1
sS'varying'
p1718
I3
sS'known'
p1719
I1
sS'mounted'
p1720
I2
sS'glad'
p1721
I1
sS'cunning'
p1722
I2
sS'lust'
p1723
I1
sS'fleece'
p1724
I1
sS'hour'
p1725
I1
sS'besides'
p1726
I2
sS'remain'
p1727
I2
sS'nine'
p1728
I1
sS'learn'
p1729
I1
sS'marble'
p1730
I2
sS'history'
p1731
I3
sS'beautiful'
p1732
I3
sS'compare'
p1733
I2
sS'attainted'
p1734
I3
sS'visage'
p1735
I2
sS'heat'
p1736
I1
sS'lives'
p1737
I1
sS'neglected'
p1738
I3
sS'conspire'
p1739
I2
sS'thievish'
p1740
I2
sS'well-seeing'
p1741
I3
sS'numbers'
p1742
I2
sS'sense'
p1743
I1
sS'phrase'
p1744
I1
sS'dress'
p1745
I1
sS'simple'
p1746
I2
sS'huge'
p1747
I1
sS'siren'
p1748
I2
sS'early'
p1749
I2
sS'drained'
p1750
I1
sS'rather'
p1751
I2
sS"'thus"
p1752
I1
sS'comfort'
p1753
I2
sS'chopt'
p1754
I1
sS"adder's"
p1755
I2
sS'glowing'
p1756
I1
sS"heart's"
p1757
I1
sS'sacred'
p1758
I2
sS'strong'
p1759
I1
sS'creature'
p1760
I2
sS'simplicity'
p1761
I4
sS'pleasure'
p1762
I2
sS'rude'
p1763
I1
sS'disgraced'
p1764
I1
sS'mended'
p1765
I2
sS'blood'
p1766
I1
sS'waves'
p1767
I1
sS'replete'
p1768
I2
sS'a'
p1769
I1
sS'refuse'
p1770
I2
sS'short'
p1771
I1
sS'resemble'
p1772
I3
sS'shady'
p1773
I2
sS'register'
p1774
I3
sS'shore'
p1775
I1
sS'shade'
p1776
I1
sS'perjured'
p1777
I2
sS'banks'
p1778
I1
sS'shorn'
p1779
I1
sS"gav'st"
p1780
I1
sS'lasting'
p1781
I2
sS'dream'
p1782
I1
sS"that's"
p1783
I1
sS'recite'
p1784
I2
sS'played'
p1785
I1
sS'help'
p1786
I1
sS'winged'
p1787
I1
sS'flowers'
p1788
I1
sS'stays'
p1789
I1
sS'soon'
p1790
I1
sS'disabled'
p1791
I1
sS'held'
p1792
I1
sS'paper'
p1793
I2
sS'through'
p1794
I1
sS'committed'
p1795
I1
sS'hell'
p1796
I1
sS'smiling'
p1797
I2
sS'suffer'
p1798
I2
sS'saucy'
p1799
I2
sS'merchandized'
p1800
I3
sS'pent'
p1801
I1
sS'render'
p1802
I2
sS'termed'
p1803
I1
sS'pray'
p1804
I1
sS'inward'
p1805
I2
sS'deeds'
p1806
I1
sS'bosom'
p1807
I2
sS'teeming'
p1808
I2
sS'hounds'
p1809
I1
sS'late'
p1810
I1
sS'resort'
p1811
I2
sS'dross'
p1812
I1
sS'parts'
p1813
I1
sS'threescore'
p1814
I2
sS'ruining'
p1815
I2
sS'self-willed'
p1816
I2
sS'bereft'
p1817
I2
sS'alter'
p1818
I2
sS'crawls'
p1819
I1
sS'fool'
p1820
I1
sS'good'
p1821
I1
sS'return'
p1822
I2
sS'freezings'
p1823
I2
sS'seeking'
p1824
I2
sS'motley'
p1825
I2
sS'distilled'
p1826
I2
sS'ye'
p1827
I3
sS'storm-beaten'
p1828
I3
sS'speechless'
p1829
I2
sS'walls'
p1830
I1
sS'nymphs'
p1831
I1
sS'rank'
p1832
I1
sS'compound'
p1833
I2
sS'foot'
p1834
I1
sS'hunted'
p1835
I2
sS'antiquity'
p1836
I4
sS"mistress'"
p1837
I2
sS'complain'
p1838
I2
sS'likeness'
p1839
I2
sS'imprisoned'
p1840
I3
sS'always'
p1841
I2
sS'truths'
p1842
I1
sS'eloquence'
p1843
I3
sS'ashes'
p1844
I2
sS'stopped'
p1845
I1
sS'blest'
p1846
I1
sS'found'
p1847
I1
sS'heavy'
p1848
I2
sS"put'st"
p1849
I1
sS'proud-pied'
p1850
I2
sS'bends'
p1851
I1
sS'weight'
p1852
I1
sS'sullied'
p1853
I2
sS'jaws'
p1854
I1
sS'hard'
p1855
I1
sS'oppressed'
p1856
I1
sS'fist'
p1857
I1
sS"nature's"
p1858
I2
sS'beyond'
p1859
I2
sS'incertainties'
p1860
I4
sS'travels'
p1861
I2
sS'flower'
p1862
I2
sS'missed'
p1863
I1
sS'since'
p1864
I1
sS'publish'
p1865
I2
sS"hate's"
p1866
I1
sS'nurseth'
p1867
I2
sS'hill'
p1868
I1
sS'print'
p1869
I1
sS'darling'
p1870
I2
sS'issue'
p1871
I2
sS'sympathized'
p1872
I3
sS'stewards'
p1873
I2
sS'boldness'
p1874
I2
sS'belied'
p1875
I2
sS'commits'
p1876
I2
sS'fore-bemoaned'
p1877
I4
sS'forgive'
p1878
I2
sS'pleasant'
p1879
I2
sS'reason'
p1880
I2
sS'base'
p1881
I1
sS'impeached'
p1882
I2
sS'put'
p1883
I1
sS'teach'
p1884
I1
sS'reproach'
p1885
I2
sS"excuse'"
p1886
I2
sS"know'st"
p1887
I1
sS'nightly'
p1888
I2
sS'owners'
p1889
I2
sS'service'
p1890
I2
sS'needing'
p1891
I2
sS'rack'
p1892
I1
sS'sicken'
p1893
I2
sS'corrupting'
p1894
I3
sS'feed'
p1895
I1
sS'gazed'
p1896
I1
sS'seeming'
p1897
I2
sS'forwards'
p1898
I2
sS'blush'
p1899
I1
sS'feel'
p1900
I1
sS'number'
p1901
I2
sS'breathers'
p1902
I2
sS'elder'
p1903
I2
sS'enlarged'
p1904
I2
sS'revolution'
p1905
I4
sS'done'
p1906
I1
sS'defects'
p1907
I2
sS'stage'
p1908
I1
sS'rents'
p1909
I1
sS'moan'
p1910
I1
sS'guess'
p1911
I1
sS'guest'
p1912
I1
sS'rondure'
p1913
I2
sS'twenty'
p1914
I2
sS'slanderers'
p1915
I3
sS'least'
p1916
I1
sS'hallowed'
p1917
I1
sS'steals'
p1918
I1
sS'passed'
p1919
I1
sS'essays'
p1920
I2
sS'hundred'
p1921
I2
sS'store'
p1922
I1
sS'lease'
p1923
I1
sS'youngly'
p1924
I2
sS'selling'
p1925
I2
sS'imperfect'
p1926
I3
sS'saint'
p1927
I1
sS'longing'
p1928
I2
sS'adonis'
p1929
I3
sS'part'
p1930
I1
sS'bower'
p1931
I2
sS'believe'
p1932
I2
sS"what's"
p1933
I1
sS'grace'
p1934
I1
sS'king'
p1935
I1
sS'kind'
p1936
I1
sS'grew'
p1937
I1
sS'mortality'
p1938
I4
sS'vial'
p1939
I2
sS'double'
p1940
I2
sS'anticipate'
p1941
I4
sS'mortgaged'
p1942
I1
sS'grey'
p1943
I1
sS'shallowest'
p1944
I3
sS'youth'
p1945
I1
sS'autumn'
p1946
I2
sS'determined'
p1947
I3
sS'contrary'
p1948
I3
sS'supposed'
p1949
I3
sS'toward'
p1950
I2
sS'restful'
p1951
I2
sS'tongues'
p1952
I1
sS'trifles'
p1953
I2
sS'ages'
p1954
I2
sS'defect'
p1955
I2
sS'livery'
p1956
I3
sS'new-fired'
p1957
I2
sS'alike'
p1958
I2
sS'showers'
p1959
I2
sS'travail'
p1960
I2
sS'fading'
p1961
I2
sS'sensual'
p1962
I3
sS'sell'
p1963
I1
sS'mountain'
p1964
I2
sS'nights'
p1965
I1
sS'built'
p1966
I1
sS'dancing'
p1967
I2
sS'self'
p1968
I1
sS'onset'
p1969
I2
sS'without'
p1970
I2
sS'lip'
p1971
I1
sS'finding'
p1972
I2
sS'chary'
p1973
I2
sS"art's"
p1974
I1
sS"'had"
p1975
I1
sS'towards'
p1976
I2
sS'death'
p1977
I1
sS'reckon'
p1978
I2
sS'sets'
p1979
I1
sS'unswayed'
p1980
I2
sS'unused'
p1981
I2
sS'most'
p1982
I1
sS'blunting'
p1983
I2
sS'nothing'
p1984
I2
sS'seasons'
p1985
I2
sS"o'ercharged"
p1986
I2
sS'wastes'
p1987
I1
sS'measured'
p1988
I2
sS'stands'
p1989
I1
sS'chronicle'
p1990
I3
sS'feasting'
p1991
I2
sS'windows'
p1992
I2
sS'arising'
p1993
I3
sS'clear'
p1994
I1
sS'sometimes'
p1995
I2
sS'cover'
p1996
I2
sS'unbred'
p1997
I2
sS'reeleth'
p1998
I2
sS'barren'
p1999
I2
sS'convertest'
p2000
I2
sS'charged'
p2001
I1
sS'lying'
p2002
I2
sS'stones'
p2003
I1
sS'self-substantial'
p2004
I4
sS'despise'
p2005
I2
sS'gold'
p2006
I1
sS'gates'
p2007
I1
sS"y'have"
p2008
I1
sS'wailing'
p2009
I2
sS'fond'
p2010
I1
sS'page'
p2011
I1
sS'rhymers'
p2012
I2
sS'wasted'
p2013
I2
sS'registers'
p2014
I3
sS'fine'
p2015
I1
sS'find'
p2016
I1
sS'viewest'
p2017
I2
sS'sportive'
p2018
I2
sS'gilded'
p2019
I2
sS'aggravate'
p2020
I3
sS'shouldst'
p2021
I1
sS'deserts'
p2022
I2
sS'unperfect'
p2023
I3
sS'ruin'
p2024
I2
sS'hope'
p2025
I1
sS'rotten'
p2026
I2
sS'vision'
p2027
I2
sS'tempests'
p2028
I2
sS'beauteous'
p2029
I3
sS'fiend'
p2030
I1
sS"painter's"
p2031
I2
sS'niggard'
p2032
I2
sS'dust'
p2033
I1
sS'gains'
p2034
I1
sS'compiled'
p2035
I2
sS'express'
p2036
I2
sS'impregnable'
p2037
I4
sS'trees'
p2038
I1
sS'remedy'
p2039
I3
sS'hid'
p2040
I1
sS'rest'
p2041
I1
sS'compass'
p2042
I2
sS'swart-complexioned'
p2043
I4
sS'sepulchres'
p2044
I3
sS"send'st"
p2045
I1
sS'him'
p2046
I1
sS'distraction'
p2047
I3
sS'grievances'
p2048
I3
sS'pleasures'
p2049
I2
sS'cry'
p2050
I1
sS'impanelled'
p2051
I3
sS'remove'
p2052
I2
sS'common'
p2053
I2
sS'kill'
p2054
I1
sS'poisoned'
p2055
I2
sS'wrongfully'
p2056
I3
sS'bars'
p2057
I1
sS'set'
p2058
I1
sS'art'
p2059
I1
sS'declines'
p2060
I2
sS'jade'
p2061
I1
sS"o'ersways"
p2062
I2
sS'see'
p2063
I1
sS'bare'
p2064
I1
sS'are'
p2065
I1
sS'sea'
p2066
I1
sS'tender'
p2067
I2
sS'bark'
p2068
I1
sS'outward'
p2069
I2
sS'spirits'
p2070
I2
sS'forlorn'
p2071
I2
sS'user'
p2072
I2
sS'please'
p2073
I1
sS'drooping'
p2074
I2
sS'unions'
p2075
I2
sS'won'
p2076
I1
sS'gentlest'
p2077
I2
sS'affairs'
p2078
I2
sS'woe'
p2079
I1
sS'guilt'
p2080
I1
sS'burned'
p2081
I1
sS'monsters'
p2082
I2
sS'thrive'
p2083
I1
sS'endure'
p2084
I2
sS'knowing'
p2085
I2
sS'creating'
p2086
I3
sS'sold'
p2087
I1
sS'sole'
p2088
I1
sS'vanishing'
p2089
I3
sS'blot'
p2090
I1
sS'alters'
p2091
I2
sS'both'
p2092
I1
sS'last'
p2093
I1
sS'grounded'
p2094
I2
sS'desired'
p2095
I2
sS'thou'
p2096
I1
sS'anon'
p2097
I2
sS'forgotten'
p2098
I3
sS'let'
p2099
I1
sS'possesseth'
p2100
I3
sS'afar'
p2101
I2
sS'finds'
p2102
I1
sS'league'
p2103
I1
sS'usest'
p2104
I2
sS'flies'
p2105
I1
sS'onward'
p2106
I2
sS'majesty'
p2107
I3
sS'point'
p2108
I1
sS'reasons'
p2109
I2
sS'sweet'
p2110
I1
sS'loan'
p2111
I1
sS'manners'
p2112
I2
sS'except'
p2113
I2
sS'key'
p2114
I1
sS'simply'
p2115
I2
sS'worthless'
p2116
I2
sS'devil'
p2117
I2
sS'unworthiness'
p2118
I4
sS"'scaped"
p2119
I1
sS'stamp'
p2120
I1
sS'devouring'
p2121
I3
sS'acceptance'
p2122
I3
sS'satire'
p2123
I2
sS'due'
p2124
I1
sS'miser'
p2125
I2
sS'whom'
p2126
I1
sS'secret'
p2127
I2
sS"wood's"
p2128
I1
sS'wait'
p2129
I1
sS'delights'
p2130
I2
sS'rosy'
p2131
I2
sS'firm'
p2132
I1
sS'lived'
p2133
I1
sS'partly'
p2134
I2
sS'gay'
p2135
I1
sS"'twixt"
p2136
I1
sS'fire'
p2137
I1
sS"dial's"
p2138
I1
sS'overthrow'
p2139
I3
sS'great'
p2140
I1
sS'else'
p2141
I1
sS'awake'
p2142
I2
sS'mournful'
p2143
I2
sS'plants'
p2144
I1
sS'uncertain'
p2145
I3
sS'look'
p2146
I1
sS'straight'
p2147
I1
sS'admire'
p2148
I2
sS'pace'
p2149
I1
sS'while'
p2150
I1
sS'rigour'
p2151
I2
sS"intermixed'"
p2152
I3
sS'kissing'
p2153
I2
sS'eclipses'
p2154
I3
sS'youthful'
p2155
I2
sS'costly'
p2156
I2
sS'wherever'
p2157
I3
sS'herein'
p2158
I2
sS'confound'
p2159
I2
sS'vow'
p2160
I1
sS'lodged'
p2161
I1
sS'owes'
p2162
I1
sS'seen'
p2163
I1
sS'rid'
p2164
I1
sS'seest'
p2165
I1
sS'fairer'
p2166
I2
sS'chase'
p2167
I1
sS'twofold'
p2168
I2
sS'trial'
p2169
I2
sS'lengths'
p2170
I1
sS'bristly'
p2171
I2
sS'belong'
p2172
I2
sS'engrossed'
p2173
I2
sS'wherein'
p2174
I2
sS'discourse'
p2175
I2
sS'esteemed'
p2176
I2
sS'ruth'
p2177
I1
sS'miscalled'
p2178
I2
sS'composition'
p2179
I4
sS'covetous'
p2180
I3
sS'used'
p2181
I1
sS'forced'
p2182
I1
sS'mow'
p2183
I1
sS'moment'
p2184
I2
sS'moving'
p2185
I2
sS'purpose'
p2186
I2
sS'wretchcd'
p2187
I2
sS'broils'
p2188
I1
sS'task'
p2189
I1
sS'older'
p2190
I2
sS'accumulate'
p2191
I4
sS'try'
p2192
I1
sS'cheek'
p2193
I1
sS'spent'
p2194
I1
sS"frown'st"
p2195
I1
sS'grind'
p2196
I1
sS'morrow'
p2197
I2
sS'cheer'
p2198
I1
sS'edge'
p2199
I1
sS'starved'
p2200
I1
sS'clears'
p2201
I1
sS'stelled'
p2202
I1
sS'steeled'
p2203
I1
sS'things'
p2204
I1
sS'plagues'
p2205
I1
sS'bearer'
p2206
I2
sS'salve'
p2207
I1
sS'shape'
p2208
I1
sS'madding'
p2209
I2
sS'unto'
p2210
I2
sS'gems'
p2211
I1
sS'tables'
p2212
I2
sS'cut'
p2213
I1
sS'cup'
p2214
I1
sS'hated'
p2215
I2
sS'decayed'
p2216
I2
sS'sire'
p2217
I1
sS'eager'
p2218
I2
sS'lifts'
p2219
I1
sS'crying'
p2220
I2
sS"either's"
p2221
I2
sS"tongue's"
p2222
I1
sS'march'
p2223
I1
sS'awakes'
p2224
I2
sS'big'
p2225
I1
sS'bid'
p2226
I1
sS'advocate'
p2227
I3
sS'judgement'
p2228
I2
sS'redeem'
p2229
I2
sS'fulness'
p2230
I2
sS'private'
p2231
I2
sS'dearly'
p2232
I2
sS'sharpened'
p2233
I2
sS'like'
p2234
I1
sS'outright'
p2235
I2
sS'lost'
p2236
I1
sS'follows'
p2237
I2
sS'strife'
p2238
I1
sS'shapes'
p2239
I1
sS'divining'
p2240
I3
sS'tribes'
p2241
I1
sS'witness'
p2242
I2
sS'foolish'
p2243
I2
sS'canst'
p2244
I1
sS'methods'
p2245
I2
sS'wombs'
p2246
I1
sS'spring'
p2247
I1
sS'creation'
p2248
I3
sS'some'
p2249
I1
sS'back'
p2250
I1
sS'sighs'
p2251
I1
sS'lips'
p2252
I1
sS'added'
p2253
I1
sS'ornaments'
p2254
I3
sS'curious'
p2255
I3
sS'pale'
p2256
I1
sS'sauces'
p2257
I2
sS'savage'
p2258
I2
sS'acquaintance'
p2259
I3
sS'fairing'
p2260
I2
sS'shall'
p2261
I1
sS'oblivion'
p2262
I4
sS'balmy'
p2263
I2
sS'confounds'
p2264
I2
sS'barrenly'
p2265
I3
sS'lark'
p2266
I1
sS'be'
p2267
I1
sS'patient'
p2268
I2
sS'remembered'
p2269
I3
sS'word'
p2270
I1
sS'clay'
p2271
I1
sS"shadow's"
p2272
I2
sS"'this"
p2273
I1
sS'aloft'
p2274
I2
sS'rent'
p2275
I1
sS'cheered'
p2276
I1
sS'concealed'
p2277
I2
sS'nerves'
p2278
I1
sS"batt'ring"
p2279
I2
sS'shine'
p2280
I1
sS'faith'
p2281
I1
sS'works'
p2282
I1
sS'deserved'
p2283
I1
sS'wrinkles'
p2284
I2
sS'deserves'
p2285
I2
sS'ambush'
p2286
I2
sS'together'
p2287
I3
sS'hatred'
p2288
I2
sS'behaviour'
p2289
I3
sS'tenants'
p2290
I2
sS'silence'
p2291
I2
sS'misplaced'
p2292
I2
sS'seeing'
p2293
I2
sS'into'
p2294
I2
sS'amazeth'
p2295
I3
sS'exceed'
p2296
I2
sS'debateth'
p2297
I3
sS'services'
p2298
I3
sS'inconstant'
p2299
I3
sS'remembrance'
p2300
I3
sS'lesson'
p2301
I2
sS"sharp'st"
p2302
I1
sS'sad'
p2303
I1
sS'featureless'
p2304
I3
sS'few'
p2305
I1
sS'spending'
p2306
I2
sS'question'
p2307
I2
sS'chide'
p2308
I1
sS'whereto'
p2309
I2
sS'suit'
p2310
I1
sS'pictured'
p2311
I2
sS'translate'
p2312
I2
sS'himself'
p2313
I2
sS'arise'
p2314
I2
sS'jacks'
p2315
I1
sS'governs'
p2316
I2
sS'graciously'
p2317
I3
sS'healthful'
p2318
I2
sS'frost'
p2319
I1
sS'vowing'
p2320
I2
sS'alive'
p2321
I2
sS'newer'
p2322
I2
sS'filed'
p2323
I1
sS'hopes'
p2324
I1
sS'line'
p2325
I1
sS'dull'
p2326
I1
sS'usury'
p2327
I3
sS'directed'
p2328
I1
sS'bevel'
p2329
I2
sS'immured'
p2330
I2
sS"lover's"
p2331
I2
sS"monarch's"
p2332
I2
sS'us'
p2333
I1
sS'lords'
p2334
I1
sS'politic'
p2335
I3
sS'slander'
p2336
I2
sS'cheeks'
p2337
I1
sS'consumed'
p2338
I1
sS'vassalage'
p2339
I3
sS'possession'
p2340
I3
sS'constant'
p2341
I2
sS'goodly'
p2342
I2
sS'allayed'
p2343
I2
sS'influence'
p2344
I3
sS'scarlet'
p2345
I2
sS'single'
p2346
I2
sS'warning'
p2347
I2
sS'babe'
p2348
I1
sS'surmise'
p2349
I2
sS'rainy'
p2350
I2
sS'sullen'
p2351
I2
sS'sunken'
p2352
I2
sS'impediments'
p2353
I4
sS'peace'
p2354
I1
sS'fears'
p2355
I1
sS'dimmed'
p2356
I1
sS'charactered'
p2357
I3
sS'confine'
p2358
I2
sS'mock'
p2359
I1
sS'perusal'
p2360
I3
sS'draw'
p2361
I1
sS'aright'
p2362
I2
sS'titles'
p2363
I2
sS'clean'
p2364
I1
sS'lend'
p2365
I1
sS'breasts'
p2366
I1
sS'nay'
p2367
I1
sS'rise'
p2368
I1
sS'weigh'
p2369
I1
sS'makeless'
p2370
I2
sS'wrinkle'
p2371
I2
sS'sides'
p2372
I1
sS'bases'
p2373
I2
sS'suffers'
p2374
I2
sS'happier'
p2375
I2
sS'happies'
p2376
I2
sS"spend'st"
p2377
I1
sS'vice'
p2378
I3
sS'age'
p2379
I1
sS'wards'
p2380
I1
sS'admiring'
p2381
I3
sS'heats'
p2382
I1
sS'came'
p2383
I1
sS'far'
p2384
I1
sS'fresh'
p2385
I1
sS'marvel'
p2386
I2
sS'having'
p2387
I2
sS'once'
p2388
I1
sS'wilfulness'
p2389
I3
sS'love-god'
p2390
I2
sS'highmost'
p2391
I2
sS'tombs'
p2392
I1
sS"deformed'st"
p2393
I2
sS'alien'
p2394
I2
sS'windy'
p2395
I2
sS'gladly'
p2396
I2
sS'amiss'
p2397
I2
sS"present'st"
p2398
I2
sS'seemed'
p2399
I1
sS'graves'
p2400
I1
sS'tincture'
p2401
I2
sS'uphold'
p2402
I2
sS'reckoned'
p2403
I2
sS'young'
p2404
I1
sS'send'
p2405
I1
sS'breach'
p2406
I1
sS'pleasing'
p2407
I2
sS'virtuous'
p2408
I3
sS'over-partial'
p2409
I4
sS'random'
p2410
I2
sS'wished'
p2411
I1
sS'torture'
p2412
I2
sS"'now"
p2413
I1
sS'confounding'
p2414
I1
sS'rhyme'
p2415
I1
sS'rebuked'
p2416
I2
sS'scanted'
p2417
I2
sS'accuse'
p2418
I2
sS'telling'
p2419
I2
sS'false-speaking'
p2420
I3
sS'iniquity'
p2421
I4
sS'queen'
p2422
I1
sS"eve's"
p2423
I1
sS'race'
p2424
I1
sS'verdict'
p2425
I2
sS'betwixt'
p2426
I2
sS'noted'
p2427
I2
sS"alt'ring"
p2428
I2
sS'teachest'
p2429
I2
sS'crow'
p2430
I1
sS"work's"
p2431
I1
sS'poets'
p2432
I2
sS'waking'
p2433
I2
sS'jump'
p2434
I1
sS'issueless'
p2435
I3
sS'plead'
p2436
I1
sS'decrees'
p2437
I2
sS'pity-wanting'
p2438
I4
sS'victor'
p2439
I2
sS'giving'
p2440
I2
sS'saw'
p2441
I1
sS'expressed'
p2442
I1
sS"man's"
p2443
I1
sS'paying'
p2444
I1
sS'waiting'
p2445
I2
sS"seasons'"
p2446
I2
sS'famoused'
p2447
I2
sS'bird'
p2448
I1
sS'body'
p2449
I2
sS'melancholy'
p2450
I4
sS'chose'
p2451
I1
sS'gathered'
p2452
I2
sS'sins'
p2453
I1
sS'growing'
p2454
I1
sS'scythe'
p2455
I1
sS'objects'
p2456
I2
sS'poverty'
p2457
I3
sS'separation'
p2458
I4
sS'others'
p2459
I2
sS'dissuade'
p2460
I2
sS'sing'
p2461
I1
sS'adulterate'
p2462
I4
sS'extreme'
p2463
I2
sS'convert'
p2464
I2
sS'burthens'
p2465
I2
sS'receive'
p2466
I2
sS'until'
p2467
I2
sS'metre'
p2468
I2
sS'leaving'
p2469
I2
sS'survey'
p2470
I2
sS'defeat'
p2471
I2
sS'vaunt'
p2472
I1
sS'makes'
p2473
I1
sS'writes'
p2474
I1
sS'composed'
p2475
I2
sS'control'
p2476
I2
sS'chaste'
p2477
I1
sS'apple'
p2478
I2
sS'admired'
p2479
I2
sS'forbid'
p2480
I2
sS'win'
p2481
I1
sS"whoe'er"
p2482
I2
sS'messengers'
p2483
I3
sS'uprear'
p2484
I2
sS'posterity'
p2485
I4
sS'wit'
p2486
I1
sS'decrease'
p2487
I2
sS'scandal'
p2488
I2
sS'cloud'
p2489
I1
sS'desiring'
p2490
I3
sS'fed'
p2491
I1
sS'fee'
p2492
I1
sS'from'
p2493
I1
sS'remains'
p2494
I2
sS'hammered'
p2495
I2
sS'next'
p2496
I1
sS'saith'
p2497
I1
sS'doubt'
p2498
I1
sS'bonds'
p2499
I1
sS'uneared'
p2500
I2
sS"sun's"
p2501
I1
sS'defendant'
p2502
I3
sS'touched'
p2503
I1
sS'sort'
p2504
I1
sS'pencil'
p2505
I2
sS'assailed'
p2506
I2
sS'pretty'
p2507
I2
sS'becomes'
p2508
I2
sS'freedom'
p2509
I2
sS'heir'
p2510
I1
sS"need'st"
p2511
I1
sS'infection'
p2512
I3
sS'meant'
p2513
I1
sS'insufficiency'
p2514
I5
sS'sue'
p2515
I1
sS'tattered'
p2516
I2
sS'special-blest'
p2517
I3
sS'harvest'
p2518
I2
sS'annoy'
p2519
I2
sS"none'"
p2520
I1
sS'account'
p2521
I2
sS'this'
p2522
I1
sS'ride'
p2523
I1
sS'halt'
p2524
I1
sS'crossed'
p2525
I1
sS'praise'
p2526
I1
sS'executor'
p2527
I4
sS'meet'
p2528
I1
sS'drops'
p2529
I1
sS'befits'
p2530
I2
sS'proof'
p2531
I1
sS'thralled'
p2532
I1
sS'dregs'
p2533
I1
sS'bent'
p2534
I1
sS'ushers'
p2535
I2
sS'process'
p2536
I2
sS'high'
p2537
I1
sS'salving'
p2538
I2
sS'unswept'
p2539
I2
sS'something'
p2540
I2
sS'sought'
p2541
I1
sS'purposed'
p2542
I2
sS'paws'
p2543
I1
sS'darkening'
p2544
I3
sS'counterfeit'
p2545
I3
sS'lamb'
p2546
I1
sS'conceit'
p2547
I2
sS'compounded'
p2548
I1
sS'falls'
p2549
I1
sS'sit'
p2550
I1
sS"sickle's"
p2551
I2
sS'holds'
p2552
I1
sS'thrall'
p2553
I1
sS'moods'
p2554
I1
sS'blessings'
p2555
I2
sS'slandering'
p2556
I3
sS'mightst'
p2557
I1
sS'forsaken'
p2558
I3
sS'sin'
p2559
I1
sS'watery'
p2560
I3
sS'attend'
p2561
I2
sS'watch'
p2562
I1
sS'tied'
p2563
I1
sS'abuse'
p2564
I2
sS'fits'
p2565
I1
sS"worth's"
p2566
I1
sS'tongue'
p2567
I1
sS'physic'
p2568
I2
sS'bankrupt'
p2569
I2
sS"bear'st"
p2570
I1
sS'untrimmed'
p2571
I2
sS'bind'
p2572
I1
sS'lame'
p2573
I1
sS'lines'
p2574
I1
sS'chief'
p2575
I1
sS'writ'
p2576
I1
sS'allow'
p2577
I2
sS'pyramids'
p2578
I3
sS'favourites'
p2579
I3
sS'counted'
p2580
I2
sS'breast'
p2581
I1
sS'neglect'
p2582
I2
sS'beauties'
p2583
I2
sS'stamped'
p2584
I1
sS'transfix'
p2585
I2
sS'move'
p2586
I1
sS'widowed'
p2587
I2
sS"o'erlook"
p2588
I2
sS'offences'
p2589
I3
sS'beguile'
p2590
I2
sS'dearest'
p2591
I2
sS'enclose'
p2592
I2
sS'trophies'
p2593
I2
sS'tyrant'
p2594
I2
sS'thyself'
p2595
I2
sS'badges'
p2596
I2
sS'perfect'
p2597
I2
sS'refusest'
p2598
I2
sS'frailties'
p2599
I2
sS'brood'
p2600
I1
sS'whereon'
p2601
I2
sS'unstained'
p2602
I2
sS'thence'
p2603
I1
sS'lo'
p2604
I1
sS'whereof'
p2605
I2
sS'banquet'
p2606
I2
sS'themes'
p2607
I1
sS'willing'
p2608
I2
sS'tyrants'
p2609
I2
sS'tickled'
p2610
I2
sS'pure'
p2611
I1
sS'flattery'
p2612
I3
sS'sweets'
p2613
I1
sS'stout'
p2614
I1
sS'hands'
p2615
I1
sS'front'
p2616
I1
sS"owner's"
p2617
I2
sS'kindness'
p2618
I2
sS'affections'
p2619
I3
sS'day'
p2620
I1
sS'damasked'
p2621
I2
sS'strive'
p2622
I1
sS'profound'
p2623
I2
sS'eased'
p2624
I1
sS'feast'
p2625
I1
sS'mouthed'
p2626
I1
sS'trimmed'
p2627
I1
sS'slide'
p2628
I1
sS'truth'
p2629
I1
sS'gazing'
p2630
I2
sS'legions'
p2631
I2
sS'beshrew'
p2632
I2
sS'lie'
p2633
I1
sS'pitying'
p2634
I3
sS'debarred'
p2635
I2
sS'doing'
p2636
I2
sS"princes'"
p2637
I2
sS'ills'
p2638
I1
sS'alteration'
p2639
I4
sS'society'
p2640
I4
sS'decays'
p2641
I2
sS'exceeded'
p2642
I3
sS'our'
p2643
I1
sS'bay'
p2644
I1
sS'tenth'
p2645
I1
sS'prizing'
p2646
I2
sS'might'
p2647
I1
sS'respects'
p2648
I2
sS"children's"
p2649
I2
sS'plods'
p2650
I1
sS'confess'
p2651
I2
sS'sufficed'
p2652
I2
sS'bad'
p2653
I1
sS'wondrous'
p2654
I2
sS'impart'
p2655
I2
sS'cause'
p2656
I1
sS'red'
p2657
I1
sS'afford'
p2658
I2
sS'perish'
p2659
I2
sS'frank'
p2660
I1
sS'darkly'
p2661
I2
sS'embassy'
p2662
I3
sS'gaol'
p2663
I1
sS'canker'
p2664
I2
sS'shun'
p2665
I1
sS'yore'
p2666
I1
sS'cured'
p2667
I1
sS'prepare'
p2668
I2
sS'misuse'
p2669
I2
sS'could'
p2670
I1
sS'keep'
p2671
I1
sS'counterpart'
p2672
I3
sS'keen'
p2673
I1
sS'length'
p2674
I1
sS'cures'
p2675
I1
sS'mortal'
p2676
I2
sS'felt'
p2677
I1
sS'ears'
p2678
I1
sS'rudely'
p2679
I2
sS'new-appearing'
p2680
I4
sS'fragrant'
p2681
I2
sS'pitied'
p2682
I2
sS'savour'
p2683
I2
sS'powerful'
p2684
I3
sS'loveliness'
p2685
I3
sS'feasts'
p2686
I1
sS"learned's"
p2687
I2
sS'such'
p2688
I1
sS'watchman'
p2689
I2
sS'quality'
p2690
I3
sS"run'st"
p2691
I1
sS"love'"
p2692
I1
sS'long'
p2693
I1
sS'sadly'
p2694
I2
sS'bears'
p2695
I1
sS'unknown'
p2696
I2
sS'vulgar'
p2697
I2
sS'seat'
p2698
I1
sS'comes'
p2699
I2
sS'intelligence'
p2700
I4
sS'prouder'
p2701
I2
sS'travelled'
p2702
I2
sS'badness'
p2703
I2
sS'fairest'
p2704
I2
sS'painful'
p2705
I2
sS'prone'
p2706
I1
sS'watching'
p2707
I2
sS'sealed'
p2708
I1
sS"were't"
p2709
I1
sS'perforce'
p2710
I2
sS'prefiguring'
p2711
I4
sS'herself'
p2712
I2
sS'commence'
p2713
I2
sS'remember'
p2714
I3
sS'steel'
p2715
I1
sS'loved'
p2716
I1
sS'unlooked'
p2717
I2
sS'aught'
p2718
I1
sS'beseem'
p2719
I2
sS'riches'
p2720
I2
sS'richer'
p2721
I2
sS'bed'
p2722
I1
sS'jollity'
p2723
I3
sS'transgression'
p2724
I3
sS"body's"
p2725
I2
sS'loves'
p2726
I1
sS'light'
p2727
I1
sS'dumb'
p2728
I1
sS"lily's"
p2729
I2
sS'counting'
p2730
I2
sS'descriptions'
p2731
I3
sS'drunk'
p2732
I1
sS'accusing'
p2733
I1
sS'enforced'
p2734
I2
sS'beggared'
p2735
I2
sS'false'
p2736
I1
sS"forget'st"
p2737
I2
sS'beggar'
p2738
I2
sS'labouring'
p2739
I3
sS'gently'
p2740
I2
sS'refigured'
p2741
I3
sS'presenteth'
p2742
I3
sS'prophetic'
p2743
I3
sS'torment'
p2744
I2
sS'have'
p2745
I1
sS're-survey'
p2746
I3
sS'need'
p2747
I1
sS'turn'
p2748
I1
sS'sings'
p2749
I1
sS'bastard'
p2750
I2
sS'bough'
p2751
I1
sS'reeks'
p2752
I1
sS'able'
p2753
I2
sS'gravity'
p2754
I3
sS'adjunct'
p2755
I2
sS'which'
p2756
I1
sS'divert'
p2757
I2
sS'adieu'
p2758
I2
sS'unless'
p2759
I2
sS'centre'
p2760
I2
sS'tenure'
p2761
I2
sS'privilage'
p2762
I3
sS"time's"
p2763
I1
sS'harmful'
p2764
I2
sS'offend'
p2765
I2
sS'but'
p2766
I1
sS'prisoner'
p2767
I3
sS'expired'
p2768
I1
sS'why'
p2769
I1
sS"husband's"
p2770
I2
sS'statute'
p2771
I2
sS'deny'
p2772
I2
sS'wherewith'
p2773
I2
sS'bred'
p2774
I1
sS'stronger'
p2775
I2
sS'disease'
p2776
I2
sS'reproving'
p2777
I3
sS'looked'
p2778
I1
sS'wounded'
p2779
I2
sS'painting'
p2780
I2
sS'outlive'
p2781
I2
sS'tear'
p2782
I1
sS'impression'
p2783
I3
sS'slandered'
p2784
I2
sS'wilful'
p2785
I2
sS'couldst'
p2786
I1
sS'burden'
p2787
I2
sS'poesy'
p2788
I3
sS'bring'
p2789
I1
sS"many's"
p2790
I2
sS'fear'
p2791
I1
sS'obsequious'
p2792
I4
sS'pleased'
p2793
I1
sS'spurring'
p2794
I2
sS'envy'
p2795
I2
sS'knowledge'
p2796
I2
sS'philomel'
p2797
I3
sS'mute'
p2798
I1
sS'woo'
p2799
I1
sS'world-without-end'
p2800
I4
sS'should'
p2801
I1
sS"there's"
p2802
I1
sS'preposterously'
p2803
I4
sS'fuel'
p2804
I2
sS'marriage'
p2805
I2
sS'inhabit'
p2806
I3
sS'inferior'
p2807
I4
sS'exchanged'
p2808
I2
sS'accessary'
p2809
I4
sS'doubting'
p2810
I2
sS'undivided'
p2811
I4
sS'familiar'
p2812
I3
sS'bear'
p2813
I1
sS'sightless'
p2814
I2
sS'abundance'
p2815
I3
sS'perfection'
p2816
I3
sS'words'
p2817
I1
sS'durst'
p2818
I1
sS'leases'
p2819
I2
sS'chips'
p2820
I1
sS'rite'
p2821
I1
sS'endless'
p2822
I2
sS'heretic'
p2823
I3
sS'glory'
p2824
I2
sS'whilst'
p2825
I1
sS'gust'
p2826
I1
sS'married'
p2827
I2
sS'summon'
p2828
I2
sS'she'
p2829
I1
sS'contain'
p2830
I2
sS'fixed'
p2831
I1
sS'deceived'
p2832
I2
sS'strengthened'
p2833
I2
sS'sluttish'
p2834
I2
sS'untrue'
p2835
I2
sS'outbraves'
p2836
I2
sS'farthest'
p2837
I2
sS'prayers'
p2838
I2
sS'frame'
p2839
I1
sS'shake'
p2840
I1
sS'legacy'
p2841
I3
sS'merits'
p2842
I2
sS'changes'
p2843
I2
sS'desperate'
p2844
I3
sS'violet'
p2845
I3
sS'sleeping'
p2846
I2
sS'overturn'
p2847
I3
sS'tripping'
p2848
I2
sS'error'
p2849
I2
sS'closet'
p2850
I2
sS'placed'
p2851
I1
sS'pattern'
p2852
I2
sS'vows'
p2853
I1
sS'unseeing'
p2854
I3
sS'worship'
p2855
I2
sS'written'
p2856
I2
sS'boughs'
p2857
I1
sS'progress'
p2858
I2
sS'neither'
p2859
I2
sS'besmeared'
p2860
I2
sS'wiry'
p2861
I2
sS'dreading'
p2862
I2
sS'amen'
p2863
I2
sS'dressings'
p2864
I2
sS'joy'
p2865
I1
sS'sorrow'
p2866
I2
sS'beweep'
p2867
I2
sS'never-resting'
p2868
I4
sS'hooks'
p2869
I1
sS'spoil'
p2870
I1
sS'precious'
p2871
I2
sS'weary'
p2872
I2
sS'swift'
p2873
I1
sS'hits'
p2874
I1
sS'weeks'
p2875
I1
sS'instant'
p2876
I2
sS'limits'
p2877
I2
sS'invited'
p2878
I3
sS'decay'
p2879
I2
sS'equal'
p2880
I2
sS'minds'
p2881
I1
sS'ruminate'
p2882
I3
sS'assure'
p2883
I2
sS'admit'
p2884
I2
sS'devour'
p2885
I2
sS'figures'
p2886
I2
sS"store's"
p2887
I1
sS'conquered'
p2888
I2
sS'canopy'
p2889
I3
sS'lofty'
p2890
I2
sS"beds'"
p2891
I1
sS'aye'
p2892
I1
sS'comment'
p2893
I2
sS'fester'
p2894
I2
sS'statues'
p2895
I2
sS'bearing'
p2896
I2
sS'walk'
p2897
I1
sS'commend'
p2898
I2
sS"wretch's"
p2899
I2
sS'kings'
p2900
I1
sS'acknowledge'
p2901
I3
sS'fountains'
p2902
I2
sS'death-bed'
p2903
I2
sS'second'
p2904
I2
sS'addition'
p2905
I3
sS'wills'
p2906
I1
sS"friend'"
p2907
I1
sS'fury'
p2908
I2
sS"whate'er"
p2909
I2
sS'certain'
p2910
I2
sS'poet'
p2911
I2
sS'waste'
p2912
I1
sS'tillage'
p2913
I2
sS'tyranny'
p2914
I3
sS'senses'
p2915
I2
sS'proudest'
p2916
I2
sS"war's"
p2917
I1
sS'painted'
p2918
I2
sS'nimble'
p2919
I2
sS'releasing'
p2920
I3
sS"hear'st"
p2921
I1
sS'lets'
p2922
I1
sS'unmoved'
p2923
I2
sS'general'
p2924
I3
sS'present'
p2925
I2
sS'debtor'
p2926
I2
sS'novel'
p2927
I2
sS'sourly'
p2928
I2
sS'surety-like'
p2929
I3
sS'fearful'
p2930
I2
sS'slept'
p2931
I1
sS'means'
p2932
I1
sS'addeth'
p2933
I2
sS'as'
p2934
I1
sS'three-fold'
p2935
I2
sS'will'
p2936
I1
sS'riper'
p2937
I2
sS'wild'
p2938
I1
sS'at'
p2939
I1
sS'ripe'
p2940
I1
sS'physicians'
p2941
I3
sS'almost'
p2942
I2
sS'up-locked'
p2943
I2
sS'thus'
p2944
I1
sS'over-goes'
p2945
I3
sS'turns'
p2946
I1
sS'lambs'
p2947
I1
sS'sits'
p2948
I1
sS'new-fangled'
p2949
I3
sS'ransom'
p2950
I2
sS'all-eating'
p2951
I3
sS'perhaps'
p2952
I2
sS'cross'
p2953
I1
sS'largess'
p2954
I2
sS'adverse'
p2955
I2
sS'strange'
p2956
I1
sS'duteous'
p2957
I3
sS'kingly'
p2958
I2
sS'party'
p2959
I2
sS'well-contented'
p2960
I4
sS'blooms'
p2961
I1
sS'slave'
p2962
I1
sS'toil'
p2963
I1
sS'flesh'
p2964
I1
sS'shames'
p2965
I1
sS'drink'
p2966
I1
sS'upon'
p2967
I2
sS'effect'
p2968
I2
sS'outcast'
p2969
I2
sS'beast'
p2970
I1
sS"december's"
p2971
I3
sS'fierce'
p2972
I1
sS'judgment'
p2973
I2
sS'betray'
p2974
I2
sS'shamed'
p2975
I1
sS'audit'
p2976
I2
sS'scarcely'
p2977
I2
sS'off'
p2978
I1
sS'i'
p2979
I1
sS'approve'
p2980
I2
sS'colour'
p2981
I2
sS'well'
p2982
I1
sS'thought'
p2983
I1
sS'amends'
p2984
I2
sS'oft'
p2985
I1
sS'drowns'
p2986
I1
sS'tibey'
p2987
I2
sS'builded'
p2988
I2
sS'twire'
p2989
I1
sS'bending'
p2990
I2
sS'restore'
p2991
I2
sS'stores'
p2992
I1
sS'kiss'
p2993
I1
sS'liker'
p2994
I2
sS'less'
p2995
I1
sS"o'erpressed"
p2996
I2
sS'gulls'
p2997
I1
sS'cries'
p2998
I1
sS'interim'
p2999
I3
sS'skill'
p3000
I1
sS'thither'
p3001
I2
sS'warrantise'
p3002
I3
sS'feathered'
p3003
I2
sS'field'
p3004
I1
sS'bell'
p3005
I1
sS'sky'
p3006
I1
sS'fled'
p3007
I1
sS'arrest'
p3008
I2
sS'add'
p3009
I1
sS'book'
p3010
I1
sS'wet'
p3011
I1
sS"infant's"
p3012
I2
sS'rearward'
p3013
I2
sS'raven'
p3014
I2
sS'wooed'
p3015
I1
sS'fate'
p3016
I1
sS'testy'
p3017
I2
sS'devised'
p3018
I2
sS'famine'
p3019
I2
sS"who's"
p3020
I1
sS'crushed'
p3021
I1
sS'smother'
p3022
I2
sS'five'
p3023
I1
sS'know'
p3024
I1
sS'presume'
p3025
I2
sS'press'
p3026
I1
sS'fools'
p3027
I1
sS'loss'
p3028
I1
sS'necessary'
p3029
I4
sS"garments'"
p3030
I2
sS'inviting'
p3031
I3
sS'perpetual'
p3032
I4
sS'rich-proud'
p3033
I2
sS'admitted'
p3034
I3
sS'dove'
p3035
I1
sS'heed'
p3036
I1
sS'lose'
p3037
I1
sS'become'
p3038
I2
sS'dispraise'
p3039
I2
sS'indigest'
p3040
I3
sS'lends'
p3041
I1
sS'therein'
p3042
I2
sS'decease'
p3043
I2
sS'warmed'
p3044
I1
sS'because'
p3045
I2
sS'thief'
p3046
I1
sS'authority'
p3047
I4
sS'immortal'
p3048
I3
sS'hush'
p3049
I1
sS'growth'
p3050
I1
sS'home'
p3051
I1
sS'transport'
p3052
I2
sS"heaven's"
p3053
I2
sS'lead'
p3054
I1
sS'broad'
p3055
I1
sS'lean'
p3056
I1
sS'whole'
p3057
I1
sS'leap'
p3058
I1
sS'passion'
p3059
I2
sS'masked'
p3060
I1
sS"o'ertake"
p3061
I2
sS'thinly'
p3062
I2
sS'slight'
p3063
I1
sS"death's"
p3064
I1
sS'expire'
p3065
I2
sS'although'
p3066
I2
sS'worthy'
p3067
I2
sS'instinct'
p3068
I2
sS'imaginary'
p3069
I5
sS'stay'
p3070
I1
sS'repair'
p3071
I2
sS'worths'
p3072
I1
sS'hiding'
p3073
I2
sS'hied'
p3074
I1
sS"murd'rous"
p3075
I2
sS'rare'
p3076
I1
sS'dun'
p3077
I1
sS'linger'
p3078
I2
sS'universe'
p3079
I3
sS'swear'
p3080
I1
sS'gainer'
p3081
I2
sS'hairs'
p3082
I1
sS'tomb'
p3083
I1
sS'outstripped'
p3084
I2
sS'reckoning'
p3085
I3
sS'own'
p3086
I1
sS'polished'
p3087
I2
sS'owe'
p3088
I1
sS'attaint'
p3089
I2
sS'guard'
p3090
I1
sS'promise'
p3091
I2
sS'treads'
p3092
I1
sS'female'
p3093
I2
sS'lawful'
p3094
I2
sS'quickly'
p3095
I2
sS'gazeth'
p3096
I2
sS'suborned'
p3097
I2
sS'victors'
p3098
I2
sS'friends'
p3099
I1
sS'trenches'
p3100
I2
sS'reigned'
p3101
I1
sS'spread'
p3102
I1
sS'much'
p3103
I1
sS"grief's"
p3104
I1
sS'function'
p3105
I2
sS'beard'
p3106
I1
sS'buy'
p3107
I1
sS'hoisted'
p3108
I2
sS'brand'
p3109
I1
sS'invocate'
p3110
I3
sS"wand'ring"
p3111
I2
sS'gait'
p3112
I1
sS'prophecies'
p3113
I3
sS'plague'
p3114
I1
sS'gain'
p3115
I1
sS'delivers'
p3116
I3
sS'ear'
p3117
I1
sS'eat'
p3118
I1
sS'bud'
p3119
I1
sS'he'
p3120
I1
sS'count'
p3121
I1
sS'made'
p3122
I1
sS'wise'
p3123
I1
sS'princes'
p3124
I2
sS'evident'
p3125
I3
sS'whether'
p3126
I2
sS'wish'
p3127
I1
sS'grieve'
p3128
I1
sS'triumphant'
p3129
I3
sS"eyes'"
p3130
I1
sS'record'
p3131
I2
sS'cruel'
p3132
I2
sS'converted'
p3133
I1
sS'limit'
p3134
I2
sS'monument'
p3135
I3
sS'minutes'
p3136
I2
sS'unfolding'
p3137
I3
sS'rightly'
p3138
I2
sS'deaths'
p3139
I1
sS'devise'
p3140
I2
sS'measure'
p3141
I2
sS'dearth'
p3142
I1
sS'denote'
p3143
I2
sS'goodness'
p3144
I2
sS'ink'
p3145
I1
sS'fleeting'
p3146
I2
sS'self-killed'
p3147
I2
sS'proceeds'
p3148
I2
sS'endeared'
p3149
I2
sS'nursed'
p3150
I1
sS'mutual'
p3151
I3
sS'compared'
p3152
I2
sS'didst'
p3153
I1
sS'dressed'
p3154
I1
sS'boot'
p3155
I1
sS'forests'
p3156
I2
sS'slumbers'
p3157
I2
sS'other'
p3158
I2
sS'special'
p3159
I2
sS'sick'
p3160
I1
sS'unlettered'
p3161
I3
sS'behold'
p3162
I2
sS'out'
p3163
I1
sS'beseechers'
p3164
I3
sS'pupil'
p3165
I2
sS'semblance'
p3166
I2
sS'kinds'
p3167
I1
sS'oppression'
p3168
I3
sS'variation'
p3169
I4
sS'insults'
p3170
I2
sS'methinks'
p3171
I2
sS'chance'
p3172
I1
sS'earthly'
p3173
I2
sS'astronomy'
p3174
I4
sS'veil'
p3175
I1
sS'tan'
p3176
I1
sS'ghost'
p3177
I1
sS'stirred'
p3178
I1
sS'self-example'
p3179
I4
sS'ranks'
p3180
I1
sS"he's"
p3181
I1
sS'love-kindling'
p3182
I3
sS'jewel'
p3183
I2
sS'abhor'
p3184
I2
sS'thrivers'
p3185
I2
sS"sway'st"
p3186
I1
sS'vassal'
p3187
I2
sS'determination'
p3188
I5
sS'accidents'
p3189
I3
sS'indirectly'
p3190
I4
s.